
./hello-riscv:     file format elf32-littleriscv


Disassembly of section .plt:

000102b0 <_PROCEDURE_LINKAGE_TABLE_>:
   102b0:	00002397          	auipc	t2,0x2
   102b4:	41c30333          	sub	t1,t1,t3
   102b8:	d503ae03          	lw	t3,-688(t2) # 12000 <__TMC_END__>
   102bc:	fd430313          	addi	t1,t1,-44
   102c0:	d5038293          	addi	t0,t2,-688
   102c4:	00235313          	srli	t1,t1,0x2
   102c8:	0042a283          	lw	t0,4(t0)
   102cc:	000e0067          	jr	t3 # 1a000 <__global_pointer$+0x7800>

000102d0 <puts@plt>:
   102d0:	00002e17          	auipc	t3,0x2
   102d4:	d38e2e03          	lw	t3,-712(t3) # 12008 <puts@GLIBC_2.33>
   102d8:	000e0367          	jalr	t1,t3
   102dc:	00000013          	nop

000102e0 <__libc_start_main@plt>:
   102e0:	00002e17          	auipc	t3,0x2
   102e4:	d2ce2e03          	lw	t3,-724(t3) # 1200c <__libc_start_main@GLIBC_2.33>
   102e8:	000e0367          	jalr	t1,t3
   102ec:	00000013          	nop

Disassembly of section .text:

000102f0 <_start>:
   102f0:	038000ef          	jal	ra,10328 <load_gp>
   102f4:	00050793          	mv	a5,a0
   102f8:	00000517          	auipc	a0,0x0
   102fc:	0d450513          	addi	a0,a0,212 # 103cc <main>
   10300:	00012583          	lw	a1,0(sp)
   10304:	00410613          	addi	a2,sp,4
   10308:	ff017113          	andi	sp,sp,-16
   1030c:	00000697          	auipc	a3,0x0
   10310:	11868693          	addi	a3,a3,280 # 10424 <__libc_csu_init>
   10314:	00000717          	auipc	a4,0x0
   10318:	1a070713          	addi	a4,a4,416 # 104b4 <__libc_csu_fini>
   1031c:	00010813          	mv	a6,sp
   10320:	fc1ff0ef          	jal	ra,102e0 <__libc_start_main@plt>
   10324:	00100073          	ebreak

00010328 <load_gp>:
   10328:	00002197          	auipc	gp,0x2
   1032c:	4d818193          	addi	gp,gp,1240 # 12800 <__global_pointer$>
   10330:	00008067          	ret

00010334 <deregister_tm_clones>:
   10334:	00012537          	lui	a0,0x12
   10338:	00012737          	lui	a4,0x12
   1033c:	00050793          	mv	a5,a0
   10340:	00070713          	mv	a4,a4
   10344:	00f70a63          	beq	a4,a5,10358 <deregister_tm_clones+0x24>
   10348:	00000793          	li	a5,0
   1034c:	00078663          	beqz	a5,10358 <deregister_tm_clones+0x24>
   10350:	00050513          	mv	a0,a0
   10354:	00078067          	jr	a5
   10358:	00008067          	ret

0001035c <register_tm_clones>:
   1035c:	00012537          	lui	a0,0x12
   10360:	00050793          	mv	a5,a0
   10364:	00012737          	lui	a4,0x12
   10368:	00070593          	mv	a1,a4
   1036c:	40f585b3          	sub	a1,a1,a5
   10370:	4025d793          	srai	a5,a1,0x2
   10374:	01f5d593          	srli	a1,a1,0x1f
   10378:	00f585b3          	add	a1,a1,a5
   1037c:	4015d593          	srai	a1,a1,0x1
   10380:	00058a63          	beqz	a1,10394 <register_tm_clones+0x38>
   10384:	00000793          	li	a5,0
   10388:	00078663          	beqz	a5,10394 <register_tm_clones+0x38>
   1038c:	00050513          	mv	a0,a0
   10390:	00078067          	jr	a5
   10394:	00008067          	ret

00010398 <__do_global_dtors_aux>:
   10398:	ff010113          	addi	sp,sp,-16
   1039c:	00812423          	sw	s0,8(sp)
   103a0:	8241c783          	lbu	a5,-2012(gp) # 12024 <completed.0>
   103a4:	00112623          	sw	ra,12(sp)
   103a8:	00079863          	bnez	a5,103b8 <__do_global_dtors_aux+0x20>
   103ac:	f89ff0ef          	jal	ra,10334 <deregister_tm_clones>
   103b0:	00100793          	li	a5,1
   103b4:	82f18223          	sb	a5,-2012(gp) # 12024 <completed.0>
   103b8:	00c12083          	lw	ra,12(sp)
   103bc:	00812403          	lw	s0,8(sp)
   103c0:	01010113          	addi	sp,sp,16
   103c4:	00008067          	ret

000103c8 <frame_dummy>:
   103c8:	f95ff06f          	j	1035c <register_tm_clones>

000103cc <main>:
   103cc:	fe010113          	addi	sp,sp,-32
   103d0:	00112e23          	sw	ra,28(sp)
   103d4:	00812c23          	sw	s0,24(sp)
   103d8:	02010413          	addi	s0,sp,32
   103dc:	00100793          	li	a5,1
   103e0:	fef42623          	sw	a5,-20(s0) # ffffcfec <__global_pointer$+0xfffea7ec>
   103e4:	8201a703          	lw	a4,-2016(gp) # 12020 <f>
   103e8:	81c1a783          	lw	a5,-2020(gp) # 1201c <i>
   103ec:	00f707b3          	add	a5,a4,a5
   103f0:	fef42423          	sw	a5,-24(s0)
   103f4:	fec42783          	lw	a5,-20(s0)
   103f8:	00178793          	addi	a5,a5,1
   103fc:	fef42623          	sw	a5,-20(s0)
   10400:	000107b7          	lui	a5,0x10
   10404:	4b878513          	addi	a0,a5,1208 # 104b8 <__libc_csu_fini+0x4>
   10408:	ec9ff0ef          	jal	ra,102d0 <puts@plt>
   1040c:	00000793          	li	a5,0
   10410:	00078513          	mv	a0,a5
   10414:	01c12083          	lw	ra,28(sp)
   10418:	01812403          	lw	s0,24(sp)
   1041c:	02010113          	addi	sp,sp,32
   10420:	00008067          	ret

00010424 <__libc_csu_init>:
   10424:	fe010113          	addi	sp,sp,-32
   10428:	00812c23          	sw	s0,24(sp)
   1042c:	01212823          	sw	s2,16(sp)
   10430:	00002417          	auipc	s0,0x2
   10434:	ad840413          	addi	s0,s0,-1320 # 11f08 <__frame_dummy_init_array_entry>
   10438:	00002917          	auipc	s2,0x2
   1043c:	ad490913          	addi	s2,s2,-1324 # 11f0c <__do_global_dtors_aux_fini_array_entry>
   10440:	40890933          	sub	s2,s2,s0
   10444:	00112e23          	sw	ra,28(sp)
   10448:	00912a23          	sw	s1,20(sp)
   1044c:	01312623          	sw	s3,12(sp)
   10450:	01412423          	sw	s4,8(sp)
   10454:	01512223          	sw	s5,4(sp)
   10458:	40295913          	srai	s2,s2,0x2
   1045c:	02090a63          	beqz	s2,10490 <__libc_csu_init+0x6c>
   10460:	00050993          	mv	s3,a0
   10464:	00058a13          	mv	s4,a1
   10468:	00060a93          	mv	s5,a2
   1046c:	00000493          	li	s1,0
   10470:	00042783          	lw	a5,0(s0)
   10474:	000a8613          	mv	a2,s5
   10478:	000a0593          	mv	a1,s4
   1047c:	00098513          	mv	a0,s3
   10480:	00148493          	addi	s1,s1,1
   10484:	000780e7          	jalr	a5
   10488:	00440413          	addi	s0,s0,4
   1048c:	fe9912e3          	bne	s2,s1,10470 <__libc_csu_init+0x4c>
   10490:	01c12083          	lw	ra,28(sp)
   10494:	01812403          	lw	s0,24(sp)
   10498:	01412483          	lw	s1,20(sp)
   1049c:	01012903          	lw	s2,16(sp)
   104a0:	00c12983          	lw	s3,12(sp)
   104a4:	00812a03          	lw	s4,8(sp)
   104a8:	00412a83          	lw	s5,4(sp)
   104ac:	02010113          	addi	sp,sp,32
   104b0:	00008067          	ret

000104b4 <__libc_csu_fini>:
   104b4:	00008067          	ret
