
./hello-riscv:     file format elf32-littleriscv


Disassembly of section .interp:

00010154 <.interp>:
   10154:	62696c2f          	0x62696c2f
   10158:	2d646c2f          	0x2d646c2f
   1015c:	696c                	flw	fa1,84(a0)
   1015e:	756e                	flw	fa0,248(sp)
   10160:	2d78                	fld	fa4,216(a0)
   10162:	6972                	flw	fs2,28(sp)
   10164:	33766373          	csrrsi	t1,mhpmevent23,12
   10168:	2d32                	fld	fs10,264(sp)
   1016a:	6c69                	lui	s8,0x1a
   1016c:	3370                	fld	fa2,224(a4)
   1016e:	2e32                	fld	ft8,264(sp)
   10170:	312e6f73          	csrrsi	t5,0x312,28
	...

Disassembly of section .note.ABI-tag:

00010178 <__abi_tag>:
   10178:	0004                	0x4
   1017a:	0000                	unimp
   1017c:	0010                	0x10
   1017e:	0000                	unimp
   10180:	0001                	nop
   10182:	0000                	unimp
   10184:	00554e47          	fmsub.s	ft8,fa0,ft5,ft0,rmm
   10188:	0000                	unimp
   1018a:	0000                	unimp
   1018c:	0005                	c.nop	1
   1018e:	0000                	unimp
   10190:	0004                	0x4
   10192:	0000                	unimp
   10194:	0000                	unimp
	...

Disassembly of section .hash:

00010198 <.hash>:
   10198:	00000003          	lb	zero,0(zero) # 0 <__abi_tag-0x10178>
   1019c:	0004                	0x4
   1019e:	0000                	unimp
   101a0:	0002                	c.slli64	zero
   101a2:	0000                	unimp
   101a4:	00000003          	lb	zero,0(zero) # 0 <__abi_tag-0x10178>
	...
   101b8:	0001                	nop
	...

Disassembly of section .gnu.hash:

000101bc <.gnu.hash>:
   101bc:	00000003          	lb	zero,0(zero) # 0 <__abi_tag-0x10178>
   101c0:	0001                	nop
   101c2:	0000                	unimp
   101c4:	0001                	nop
   101c6:	0000                	unimp
   101c8:	0005                	c.nop	1
   101ca:	0000                	unimp
   101cc:	4000                	lw	s0,0(s0)
   101ce:	00010103          	lb	sp,0(sp)
   101d2:	0000                	unimp
   101d4:	0002                	c.slli64	zero
   101d6:	0000                	unimp
   101d8:	00000003          	lb	zero,0(zero) # 0 <__abi_tag-0x10178>
   101dc:	7b11                	lui	s6,0xfffe4
   101de:	7c9c                	flw	fa5,56(s1)
   101e0:	7e19                	lui	t3,0xfffe6
   101e2:	870a                	mv	a4,sp
   101e4:	f63d4e2f          	0xf63d4e2f

Disassembly of section .dynsym:

000101e8 <.dynsym>:
	...
   101f8:	0001                	nop
   101fa:	0000                	unimp
   101fc:	02d0                	addi	a2,sp,324
   101fe:	0001                	nop
   10200:	0000                	unimp
   10202:	0000                	unimp
   10204:	0012                	c.slli	zero,0x4
   10206:	0000                	unimp
   10208:	002d                	c.nop	11
   1020a:	0000                	unimp
   1020c:	2800                	fld	fs0,16(s0)
   1020e:	0001                	nop
   10210:	0000                	unimp
   10212:	0000                	unimp
   10214:	0010                	0x10
   10216:	fff1                	bnez	a5,101f2 <__abi_tag+0x7a>
   10218:	0006                	c.slli	zero,0x1
   1021a:	0000                	unimp
   1021c:	02e0                	addi	s0,sp,332
   1021e:	0001                	nop
   10220:	0000                	unimp
   10222:	0000                	unimp
   10224:	0012                	c.slli	zero,0x4
	...

Disassembly of section .dynstr:

00010228 <.dynstr>:
   10228:	7000                	flw	fs0,32(s0)
   1022a:	7475                	lui	s0,0xffffd
   1022c:	5f5f0073          	0x5f5f0073
   10230:	696c                	flw	fa1,84(a0)
   10232:	6362                	flw	ft6,24(sp)
   10234:	735f 6174 7472      	0x74726174735f
   1023a:	6d5f 6961 006e      	0x6e69616d5f
   10240:	696c                	flw	fa1,84(a0)
   10242:	6362                	flw	ft6,24(sp)
   10244:	732e                	flw	ft6,232(sp)
   10246:	00362e6f          	jal	t3,72a48 <__global_pointer$+0x60248>
   1024a:	42494c47          	fmsub.d	fs8,fs2,ft4,fs0,rmm
   1024e:	2e325f43          	fmadd.q	ft10,ft4,ft3,ft5,unknown
   10252:	5f003333          	0x5f003333
   10256:	675f 6f6c 6162      	0x61626f6c675f
   1025c:	5f6c                	lw	a1,124(a4)
   1025e:	6f70                	flw	fa2,92(a4)
   10260:	6e69                	lui	t3,0x1a
   10262:	6574                	flw	fa3,76(a0)
   10264:	2472                	fld	fs0,280(sp)
	...

Disassembly of section .gnu.version:

00010268 <.gnu.version>:
   10268:	0000                	unimp
   1026a:	0002                	c.slli64	zero
   1026c:	0001                	nop
   1026e:	0002                	c.slli64	zero

Disassembly of section .gnu.version_r:

00010270 <.gnu.version_r>:
   10270:	0001                	nop
   10272:	0001                	nop
   10274:	0018                	0x18
   10276:	0000                	unimp
   10278:	0010                	0x10
   1027a:	0000                	unimp
   1027c:	0000                	unimp
   1027e:	0000                	unimp
   10280:	069691b3          	0x69691b3
   10284:	0000                	unimp
   10286:	0002                	c.slli64	zero
   10288:	0022                	c.slli	zero,0x8
   1028a:	0000                	unimp
   1028c:	0000                	unimp
	...

Disassembly of section .rela.plt:

00010290 <.rela.plt>:
   10290:	2008                	fld	fa0,0(s0)
   10292:	0001                	nop
   10294:	0105                	addi	sp,sp,1
   10296:	0000                	unimp
   10298:	0000                	unimp
   1029a:	0000                	unimp
   1029c:	200c                	fld	fa1,0(s0)
   1029e:	0001                	nop
   102a0:	0305                	addi	t1,t1,1
   102a2:	0000                	unimp
   102a4:	0000                	unimp
	...

Disassembly of section .plt:

000102b0 <_PROCEDURE_LINKAGE_TABLE_>:
   102b0:	00002397          	auipc	t2,0x2
   102b4:	41c30333          	sub	t1,t1,t3
   102b8:	d503ae03          	lw	t3,-688(t2) # 12000 <__TMC_END__>
   102bc:	fd430313          	addi	t1,t1,-44
   102c0:	d5038293          	addi	t0,t2,-688
   102c4:	00235313          	srli	t1,t1,0x2
   102c8:	0042a283          	lw	t0,4(t0)
   102cc:	000e0067          	jr	t3 # 1a000 <__global_pointer$+0x7800>

000102d0 <puts@plt>:
   102d0:	00002e17          	auipc	t3,0x2
   102d4:	d38e2e03          	lw	t3,-712(t3) # 12008 <puts@GLIBC_2.33>
   102d8:	000e0367          	jalr	t1,t3
   102dc:	00000013          	nop

000102e0 <__libc_start_main@plt>:
   102e0:	00002e17          	auipc	t3,0x2
   102e4:	d2ce2e03          	lw	t3,-724(t3) # 1200c <__libc_start_main@GLIBC_2.33>
   102e8:	000e0367          	jalr	t1,t3
   102ec:	00000013          	nop

Disassembly of section .text:

000102f0 <_start>:
   102f0:	038000ef          	jal	ra,10328 <load_gp>
   102f4:	00050793          	mv	a5,a0
   102f8:	00000517          	auipc	a0,0x0
   102fc:	0d450513          	addi	a0,a0,212 # 103cc <main>
   10300:	00012583          	lw	a1,0(sp)
   10304:	00410613          	addi	a2,sp,4
   10308:	ff017113          	andi	sp,sp,-16
   1030c:	00000697          	auipc	a3,0x0
   10310:	11868693          	addi	a3,a3,280 # 10424 <__libc_csu_init>
   10314:	00000717          	auipc	a4,0x0
   10318:	1a070713          	addi	a4,a4,416 # 104b4 <__libc_csu_fini>
   1031c:	00010813          	mv	a6,sp
   10320:	fc1ff0ef          	jal	ra,102e0 <__libc_start_main@plt>
   10324:	00100073          	ebreak

00010328 <load_gp>:
   10328:	00002197          	auipc	gp,0x2
   1032c:	4d818193          	addi	gp,gp,1240 # 12800 <__global_pointer$>
   10330:	00008067          	ret

00010334 <deregister_tm_clones>:
   10334:	00012537          	lui	a0,0x12
   10338:	00012737          	lui	a4,0x12
   1033c:	00050793          	mv	a5,a0
   10340:	00070713          	mv	a4,a4
   10344:	00f70a63          	beq	a4,a5,10358 <deregister_tm_clones+0x24>
   10348:	00000793          	li	a5,0
   1034c:	00078663          	beqz	a5,10358 <deregister_tm_clones+0x24>
   10350:	00050513          	mv	a0,a0
   10354:	00078067          	jr	a5
   10358:	00008067          	ret

0001035c <register_tm_clones>:
   1035c:	00012537          	lui	a0,0x12
   10360:	00050793          	mv	a5,a0
   10364:	00012737          	lui	a4,0x12
   10368:	00070593          	mv	a1,a4
   1036c:	40f585b3          	sub	a1,a1,a5
   10370:	4025d793          	srai	a5,a1,0x2
   10374:	01f5d593          	srli	a1,a1,0x1f
   10378:	00f585b3          	add	a1,a1,a5
   1037c:	4015d593          	srai	a1,a1,0x1
   10380:	00058a63          	beqz	a1,10394 <register_tm_clones+0x38>
   10384:	00000793          	li	a5,0
   10388:	00078663          	beqz	a5,10394 <register_tm_clones+0x38>
   1038c:	00050513          	mv	a0,a0
   10390:	00078067          	jr	a5
   10394:	00008067          	ret

00010398 <__do_global_dtors_aux>:
   10398:	ff010113          	addi	sp,sp,-16
   1039c:	00812423          	sw	s0,8(sp)
   103a0:	8241c783          	lbu	a5,-2012(gp) # 12024 <completed.0>
   103a4:	00112623          	sw	ra,12(sp)
   103a8:	00079863          	bnez	a5,103b8 <__do_global_dtors_aux+0x20>
   103ac:	f89ff0ef          	jal	ra,10334 <deregister_tm_clones>
   103b0:	00100793          	li	a5,1
   103b4:	82f18223          	sb	a5,-2012(gp) # 12024 <completed.0>
   103b8:	00c12083          	lw	ra,12(sp)
   103bc:	00812403          	lw	s0,8(sp)
   103c0:	01010113          	addi	sp,sp,16
   103c4:	00008067          	ret

000103c8 <frame_dummy>:
   103c8:	f95ff06f          	j	1035c <register_tm_clones>

000103cc <main>:
   103cc:	fe010113          	addi	sp,sp,-32
   103d0:	00112e23          	sw	ra,28(sp)
   103d4:	00812c23          	sw	s0,24(sp)
   103d8:	02010413          	addi	s0,sp,32
   103dc:	00100793          	li	a5,1
   103e0:	fef42623          	sw	a5,-20(s0) # ffffcfec <__global_pointer$+0xfffea7ec>
   103e4:	8201a703          	lw	a4,-2016(gp) # 12020 <f>
   103e8:	81c1a783          	lw	a5,-2020(gp) # 1201c <i>
   103ec:	00f707b3          	add	a5,a4,a5
   103f0:	fef42423          	sw	a5,-24(s0)
   103f4:	fec42783          	lw	a5,-20(s0)
   103f8:	00178793          	addi	a5,a5,1
   103fc:	fef42623          	sw	a5,-20(s0)
   10400:	000107b7          	lui	a5,0x10
   10404:	4b878513          	addi	a0,a5,1208 # 104b8 <__libc_csu_fini+0x4>
   10408:	ec9ff0ef          	jal	ra,102d0 <puts@plt>
   1040c:	00000793          	li	a5,0
   10410:	00078513          	mv	a0,a5
   10414:	01c12083          	lw	ra,28(sp)
   10418:	01812403          	lw	s0,24(sp)
   1041c:	02010113          	addi	sp,sp,32
   10420:	00008067          	ret

00010424 <__libc_csu_init>:
   10424:	fe010113          	addi	sp,sp,-32
   10428:	00812c23          	sw	s0,24(sp)
   1042c:	01212823          	sw	s2,16(sp)
   10430:	00002417          	auipc	s0,0x2
   10434:	ad840413          	addi	s0,s0,-1320 # 11f08 <__frame_dummy_init_array_entry>
   10438:	00002917          	auipc	s2,0x2
   1043c:	ad490913          	addi	s2,s2,-1324 # 11f0c <__do_global_dtors_aux_fini_array_entry>
   10440:	40890933          	sub	s2,s2,s0
   10444:	00112e23          	sw	ra,28(sp)
   10448:	00912a23          	sw	s1,20(sp)
   1044c:	01312623          	sw	s3,12(sp)
   10450:	01412423          	sw	s4,8(sp)
   10454:	01512223          	sw	s5,4(sp)
   10458:	40295913          	srai	s2,s2,0x2
   1045c:	02090a63          	beqz	s2,10490 <__libc_csu_init+0x6c>
   10460:	00050993          	mv	s3,a0
   10464:	00058a13          	mv	s4,a1
   10468:	00060a93          	mv	s5,a2
   1046c:	00000493          	li	s1,0
   10470:	00042783          	lw	a5,0(s0)
   10474:	000a8613          	mv	a2,s5
   10478:	000a0593          	mv	a1,s4
   1047c:	00098513          	mv	a0,s3
   10480:	00148493          	addi	s1,s1,1
   10484:	000780e7          	jalr	a5
   10488:	00440413          	addi	s0,s0,4
   1048c:	fe9912e3          	bne	s2,s1,10470 <__libc_csu_init+0x4c>
   10490:	01c12083          	lw	ra,28(sp)
   10494:	01812403          	lw	s0,24(sp)
   10498:	01412483          	lw	s1,20(sp)
   1049c:	01012903          	lw	s2,16(sp)
   104a0:	00c12983          	lw	s3,12(sp)
   104a4:	00812a03          	lw	s4,8(sp)
   104a8:	00412a83          	lw	s5,4(sp)
   104ac:	02010113          	addi	sp,sp,32
   104b0:	00008067          	ret

000104b4 <__libc_csu_fini>:
   104b4:	00008067          	ret

Disassembly of section .rodata:

000104b8 <.rodata>:
   104b8:	6568                	flw	fa0,76(a0)
   104ba:	6c6c                	flw	fa1,92(s0)
   104bc:	6f77206f          	j	833b2 <__global_pointer$+0x70bb2>
   104c0:	6c72                	flw	fs8,28(sp)
   104c2:	0064                	addi	s1,sp,12

Disassembly of section .eh_frame_hdr:

000104c4 <__GNU_EH_FRAME_HDR>:
   104c4:	1b01                	addi	s6,s6,-32
   104c6:	00103b03          	0x103b03
   104ca:	0000                	unimp
   104cc:	0001                	nop
   104ce:	0000                	unimp
   104d0:	fe2c                	fsw	fa1,120(a2)
   104d2:	ffff                	0xffff
   104d4:	0028                	addi	a0,sp,8
	...

Disassembly of section .eh_frame:

000104d8 <__FRAME_END__-0x28>:
   104d8:	0010                	0x10
   104da:	0000                	unimp
   104dc:	0000                	unimp
   104de:	0000                	unimp
   104e0:	00527a03          	0x527a03
   104e4:	7c01                	lui	s8,0xfffe0
   104e6:	0101                	addi	sp,sp,0
   104e8:	00020d1b          	0x20d1b
   104ec:	0010                	0x10
   104ee:	0000                	unimp
   104f0:	0018                	0x18
   104f2:	0000                	unimp
   104f4:	fdfc                	fsw	fa5,124(a1)
   104f6:	ffff                	0xffff
   104f8:	0038                	addi	a4,sp,8
   104fa:	0000                	unimp
   104fc:	0700                	addi	s0,sp,896
   104fe:	0001                	nop

00010500 <__FRAME_END__>:
   10500:	0000                	unimp
	...

Disassembly of section .preinit_array:

00011f04 <.preinit_array>:
   11f04:	0328                	addi	a0,sp,392
   11f06:	0001                	nop

Disassembly of section .init_array:

00011f08 <__frame_dummy_init_array_entry>:
   11f08:	03c8                	addi	a0,sp,452
   11f0a:	0001                	nop

Disassembly of section .fini_array:

00011f0c <__do_global_dtors_aux_fini_array_entry>:
   11f0c:	0398                	addi	a4,sp,448
   11f0e:	0001                	nop

Disassembly of section .dynamic:

00011f10 <_DYNAMIC>:
   11f10:	0001                	nop
   11f12:	0000                	unimp
   11f14:	0018                	0x18
   11f16:	0000                	unimp
   11f18:	0020                	addi	s0,sp,8
   11f1a:	0000                	unimp
   11f1c:	1f04                	addi	s1,sp,944
   11f1e:	0001                	nop
   11f20:	0021                	c.nop	8
   11f22:	0000                	unimp
   11f24:	0004                	0x4
   11f26:	0000                	unimp
   11f28:	0019                	c.nop	6
   11f2a:	0000                	unimp
   11f2c:	1f08                	addi	a0,sp,944
   11f2e:	0001                	nop
   11f30:	0000001b          	0x1b
   11f34:	0004                	0x4
   11f36:	0000                	unimp
   11f38:	001a                	c.slli	zero,0x6
   11f3a:	0000                	unimp
   11f3c:	1f0c                	addi	a1,sp,944
   11f3e:	0001                	nop
   11f40:	001c                	0x1c
   11f42:	0000                	unimp
   11f44:	0004                	0x4
   11f46:	0000                	unimp
   11f48:	0004                	0x4
   11f4a:	0000                	unimp
   11f4c:	0198                	addi	a4,sp,192
   11f4e:	0001                	nop
   11f50:	fef5                	bnez	a3,11f4c <_DYNAMIC+0x3c>
   11f52:	6fff                	0x6fff
   11f54:	01bc                	addi	a5,sp,200
   11f56:	0001                	nop
   11f58:	0005                	c.nop	1
   11f5a:	0000                	unimp
   11f5c:	0228                	addi	a0,sp,264
   11f5e:	0001                	nop
   11f60:	0006                	c.slli	zero,0x1
   11f62:	0000                	unimp
   11f64:	01e8                	addi	a0,sp,204
   11f66:	0001                	nop
   11f68:	000a                	c.slli	zero,0x2
   11f6a:	0000                	unimp
   11f6c:	0000003f 0000000b 	0xb0000003f
   11f74:	0010                	0x10
   11f76:	0000                	unimp
   11f78:	0015                	c.nop	5
   11f7a:	0000                	unimp
   11f7c:	0000                	unimp
   11f7e:	0000                	unimp
   11f80:	00000003          	lb	zero,0(zero) # 0 <__abi_tag-0x10178>
   11f84:	2000                	fld	fs0,0(s0)
   11f86:	0001                	nop
   11f88:	0002                	c.slli64	zero
   11f8a:	0000                	unimp
   11f8c:	0018                	0x18
   11f8e:	0000                	unimp
   11f90:	0014                	0x14
   11f92:	0000                	unimp
   11f94:	00000007          	0x7
   11f98:	00000017          	auipc	zero,0x0
   11f9c:	0290                	addi	a2,sp,320
   11f9e:	0001                	nop
   11fa0:	00000007          	0x7
   11fa4:	0290                	addi	a2,sp,320
   11fa6:	0001                	nop
   11fa8:	0008                	0x8
   11faa:	0000                	unimp
   11fac:	0018                	0x18
   11fae:	0000                	unimp
   11fb0:	0009                	c.nop	2
   11fb2:	0000                	unimp
   11fb4:	000c                	0xc
   11fb6:	0000                	unimp
   11fb8:	fffe                	fsw	ft11,252(sp)
   11fba:	6fff                	0x6fff
   11fbc:	0270                	addi	a2,sp,268
   11fbe:	0001                	nop
   11fc0:	ffff                	0xffff
   11fc2:	6fff                	0x6fff
   11fc4:	0001                	nop
   11fc6:	0000                	unimp
   11fc8:	fff0                	fsw	fa2,124(a5)
   11fca:	6fff                	0x6fff
   11fcc:	0268                	addi	a0,sp,268
   11fce:	0001                	nop
	...

Disassembly of section .got:

00012000 <__TMC_END__>:
   12000:	ffff                	0xffff
   12002:	ffff                	0xffff
   12004:	0000                	unimp
   12006:	0000                	unimp
   12008:	02b0                	addi	a2,sp,328
   1200a:	0001                	nop
   1200c:	02b0                	addi	a2,sp,328
   1200e:	0001                	nop

00012010 <_GLOBAL_OFFSET_TABLE_>:
   12010:	1f10                	addi	a2,sp,944
   12012:	0001                	nop

Disassembly of section .sdata:

00012014 <_IO_stdin_used>:
   12014:	0001                	nop
   12016:	0002                	c.slli64	zero

00012018 <__dso_handle>:
   12018:	0000                	unimp
	...

0001201c <i>:
   1201c:	0001                	nop
	...

Disassembly of section .sbss:

00012020 <f>:
   12020:	0000                	unimp
	...

Disassembly of section .bss:

00012024 <completed.0>:
   12024:	0000                	unimp
	...

Disassembly of section .comment:

00000000 <.comment>:
   0:	3a434347          	fmsub.d	ft6,ft6,ft4,ft7,rmm
   4:	2820                	fld	fs0,80(s0)
   6:	29554e47          	fmsub.s	ft8,fa0,fs5,ft5,rmm
   a:	3120                	fld	fs0,96(a0)
   c:	2e30                	fld	fa2,88(a2)
   e:	2e32                	fld	ft8,264(sp)
  10:	0030                	addi	a2,sp,8

Disassembly of section .debug_aranges:

00000000 <.debug_aranges>:
   0:	001c                	0x1c
   2:	0000                	unimp
   4:	0002                	c.slli64	zero
   6:	0000                	unimp
   8:	0000                	unimp
   a:	0004                	0x4
   c:	0000                	unimp
   e:	0000                	unimp
  10:	02f0                	addi	a2,sp,332
  12:	0001                	nop
  14:	0044                	addi	s1,sp,4
	...
  1e:	0000                	unimp
  20:	0014                	0x14
  22:	0000                	unimp
  24:	0002                	c.slli64	zero
  26:	0026                	c.slli	zero,0x9
  28:	0000                	unimp
  2a:	0004                	0x4
	...
  38:	0014                	0x14
  3a:	0000                	unimp
  3c:	0002                	c.slli64	zero
  3e:	000004f3          	0x4f3
  42:	0004                	0x4
	...
  50:	001c                	0x1c
  52:	0000                	unimp
  54:	0002                	c.slli64	zero
  56:	0000052f          	0x52f
  5a:	0004                	0x4
  5c:	0000                	unimp
  5e:	0000                	unimp
  60:	0424                	addi	s1,sp,520
  62:	0001                	nop
  64:	0094                	addi	a3,sp,64
	...

Disassembly of section .debug_info:

00000000 <.debug_info>:
   0:	0022                	c.slli	zero,0x8
   2:	0000                	unimp
   4:	0002                	c.slli64	zero
   6:	0000                	unimp
   8:	0000                	unimp
   a:	0104                	addi	s1,sp,128
   c:	0000                	unimp
   e:	0000                	unimp
  10:	02f0                	addi	a2,sp,332
  12:	0001                	nop
  14:	0334                	addi	a3,sp,392
  16:	0001                	nop
  18:	0000                	unimp
  1a:	0000                	unimp
  1c:	0019                	c.nop	6
  1e:	0000                	unimp
  20:	005a                	c.slli	zero,0x16
  22:	0000                	unimp
  24:	8001                	c.srli64	s0
  26:	04c9                	addi	s1,s1,18
  28:	0000                	unimp
  2a:	0004                	0x4
  2c:	0014                	0x14
  2e:	0000                	unimp
  30:	0104                	addi	s1,sp,128
  32:	00c9                	addi	ra,ra,18
  34:	0000                	unimp
  36:	4d0c                	lw	a1,24(a0)
  38:	19000003          	lb	zero,400(zero) # 190 <__abi_tag-0xffe8>
  3c:	0000                	unimp
  3e:	9100                	0x9100
  40:	0000                	unimp
  42:	0200                	addi	s0,sp,256
  44:	0801                	addi	a6,a6,0
  46:	024a                	slli	tp,tp,0x12
  48:	0000                	unimp
  4a:	0202                	c.slli64	tp
  4c:	0002a507          	flw	fa0,0(t0)
  50:	0200                	addi	s0,sp,256
  52:	0704                	addi	s1,sp,896
  54:	0201                	addi	tp,tp,0
  56:	0000                	unimp
  58:	0402                	c.slli64	s0
  5a:	0001fc07          	0x1fc07
  5e:	0200                	addi	s0,sp,256
  60:	0601                	addi	a2,a2,0
  62:	024c                	addi	a1,sp,260
  64:	0000                	unimp
  66:	00021a03          	lh	s4,0(tp) # 0 <__abi_tag-0x10178>
  6a:	0100                	addi	s0,sp,128
  6c:	1726                	slli	a4,a4,0x29
  6e:	001d                	c.nop	7
  70:	0000                	unimp
  72:	0202                	c.slli64	tp
  74:	bf05                	j	ffffffa4 <__global_pointer$+0xfffed7a4>
  76:	0000                	unimp
  78:	0300                	addi	s0,sp,384
  7a:	00b4                	addi	a3,sp,72
  7c:	0000                	unimp
  7e:	2801                	jal	8e <__abi_tag-0x100ea>
  80:	241c                	fld	fa5,8(s0)
  82:	0000                	unimp
  84:	0300                	addi	s0,sp,384
  86:	0318                	addi	a4,sp,384
  88:	0000                	unimp
  8a:	2901                	jal	49a <__abi_tag-0xfcde>
  8c:	6b14                	flw	fa3,16(a4)
  8e:	0000                	unimp
  90:	0400                	addi	s0,sp,512
  92:	0504                	addi	s1,sp,640
  94:	6e69                	lui	t3,0x1a
  96:	0074                	addi	a3,sp,12
  98:	00008f03          	lb	t5,0(ra)
  9c:	0100                	addi	s0,sp,128
  9e:	162a                	slli	a2,a2,0x2a
  a0:	0000002b          	0x2b
  a4:	0802                	c.slli64	a6
  a6:	e905                	bnez	a0,d6 <__abi_tag-0x100a2>
  a8:	0001                	nop
  aa:	0200                	addi	s0,sp,256
  ac:	0708                	addi	a0,sp,896
  ae:	000001f7          	0x1f7
  b2:	0402                	c.slli64	s0
  b4:	ee05                	bnez	a2,ec <__abi_tag-0x1008c>
  b6:	0001                	nop
  b8:	0500                	addi	s0,sp,640
  ba:	0204                	addi	s1,sp,256
  bc:	0801                	addi	a6,a6,0
  be:	00000253          	fadd.s	ft4,ft0,ft0,rne
  c2:	00031a03          	lh	s4,0(t1)
  c6:	0200                	addi	s0,sp,256
  c8:	131a                	slli	t1,t1,0x26
  ca:	005f 0000 1c03      	0x1c030000005f
  d0:	0002                	c.slli64	zero
  d2:	0300                	addi	s0,sp,384
  d4:	1318                	addi	a4,sp,416
  d6:	0040                	addi	s0,sp,4
  d8:	0000                	unimp
  da:	0000b603          	0xb603
  de:	0300                	addi	s0,sp,384
  e0:	1419                	addi	s0,s0,-26
  e2:	00000053          	fadd.s	ft0,ft0,ft0,rne
  e6:	00009103          	lh	sp,0(ra)
  ea:	0300                	addi	s0,sp,384
  ec:	141a                	slli	s0,s0,0x26
  ee:	0072                	c.slli	zero,0x1c
  f0:	0000                	unimp
  f2:	00006803          	0x6803
  f6:	0400                	addi	s0,sp,512
  f8:	121f 00c0 0000      	0xc0121f
  fe:	0c06                	slli	s8,s8,0x1
 100:	d304                	sw	s1,32(a4)
 102:	0904                	addi	s1,sp,144
 104:	010d                	addi	sp,sp,3
 106:	0000                	unimp
 108:	00026107          	0x26107
 10c:	0400                	addi	s0,sp,512
 10e:	04d5                	addi	s1,s1,21
 110:	cc0e                	sw	gp,24(sp)
 112:	0000                	unimp
 114:	0000                	unimp
 116:	00027707          	0x27707
 11a:	0400                	addi	s0,sp,512
 11c:	04d6                	slli	s1,s1,0x15
 11e:	cc0e                	sw	gp,24(sp)
 120:	0000                	unimp
 122:	0400                	addi	s0,sp,512
 124:	0002fb07          	0x2fb07
 128:	0400                	addi	s0,sp,512
 12a:	cc0e04d7          	0xcc0e04d7
 12e:	0000                	unimp
 130:	0800                	addi	s0,sp,16
 132:	0800                	addi	s0,sp,16
 134:	0336                	slli	t1,t1,0xd
 136:	0000                	unimp
 138:	d804                	sw	s1,48(s0)
 13a:	0304                	addi	s1,sp,384
 13c:	00d8                	addi	a4,sp,68
 13e:	0000                	unimp
 140:	9509                	srai	a0,a0,0x22
 142:	0000                	unimp
 144:	2a00                	fld	fs0,16(a2)
 146:	0001                	nop
 148:	0a00                	addi	s0,sp,272
 14a:	0000002b          	0x2b
 14e:	08020003          	lb	zero,128(tp) # 80 <__abi_tag-0x100f8>
 152:	3704                	fld	fs1,40(a4)
 154:	0002                	c.slli64	zero
 156:	0200                	addi	s0,sp,256
 158:	0410                	addi	a2,sp,512
 15a:	0232                	slli	tp,tp,0xc
 15c:	0000                	unimp
 15e:	0002ed0b          	0x2ed0b
 162:	0900                	addi	s0,sp,144
 164:	101e                	c.slli	zero,0x27
 166:	00000093          	li	ra,0
 16a:	00023e03          	0x23e03
 16e:	0500                	addi	s0,sp,640
 170:	1c1c                	addi	a5,sp,560
 172:	0024                	addi	s1,sp,8
 174:	0000                	unimp
 176:	790c                	flw	fa1,48(a0)
 178:	10000003          	lb	zero,256(zero) # 100 <__abi_tag-0x10078>
 17c:	b206                	fsd	ft1,288(sp)
 17e:	7808                	flw	fa0,48(s0)
 180:	0001                	nop
 182:	0d00                	addi	s0,sp,656
 184:	032c                	addi	a1,sp,392
 186:	0000                	unimp
 188:	b406                	fsd	ft1,40(sp)
 18a:	4405                	li	s0,1
 18c:	0001                	nop
 18e:	0000                	unimp
 190:	9d0d                	0x9d0d
 192:	0002                	c.slli64	zero
 194:	0600                	addi	s0,sp,768
 196:	0ab5                	addi	s5,s5,13
 198:	017d                	addi	sp,sp,31
 19a:	0000                	unimp
 19c:	0002                	c.slli64	zero
 19e:	500e                	0x500e
 1a0:	0001                	nop
 1a2:	0900                	addi	s0,sp,144
 1a4:	0095                	addi	ra,ra,5
 1a6:	0000                	unimp
 1a8:	018d                	addi	gp,gp,3
 1aa:	0000                	unimp
 1ac:	2b0a                	fld	fs6,128(sp)
 1ae:	0000                	unimp
 1b0:	0d00                	addi	s0,sp,656
 1b2:	0f00                	addi	s0,sp,912
 1b4:	5004                	lw	s1,32(s0)
 1b6:	0001                	nop
 1b8:	1000                	addi	s0,sp,32
 1ba:	018d                	addi	gp,gp,3
 1bc:	0000                	unimp
 1be:	e111                	bnez	a0,1c2 <__abi_tag-0xffb6>
 1c0:	0002                	c.slli64	zero
 1c2:	0e00                	addi	s0,sp,784
 1c4:	0198                	addi	a4,sp,192
 1c6:	0000                	unimp
 1c8:	0198040f          	0x198040f
 1cc:	0000                	unimp
 1ce:	a210                	fsd	fa2,0(a2)
 1d0:	0001                	nop
 1d2:	1100                	addi	s0,sp,160
 1d4:	0382                	c.slli64	t2
 1d6:	0000                	unimp
 1d8:	ad0e                	fsd	ft3,152(sp)
 1da:	0001                	nop
 1dc:	0f00                	addi	s0,sp,912
 1de:	ad04                	fsd	fs1,24(a0)
 1e0:	0001                	nop
 1e2:	1000                	addi	s0,sp,32
 1e4:	000001b7          	lui	gp,0x0
 1e8:	b811                	j	fffff9fc <__global_pointer$+0xfffed1fc>
 1ea:	0002                	c.slli64	zero
 1ec:	0e00                	addi	s0,sp,784
 1ee:	01c2                	slli	gp,gp,0x10
 1f0:	0000                	unimp
 1f2:	01c2040f          	0x1c2040f
 1f6:	0000                	unimp
 1f8:	cc10                	sw	a2,24(s0)
 1fa:	0001                	nop
 1fc:	1100                	addi	s0,sp,160
 1fe:	02d4                	addi	a3,sp,324
 200:	0000                	unimp
 202:	d70e                	sw	gp,172(sp)
 204:	0001                	nop
 206:	0f00                	addi	s0,sp,912
 208:	d704                	sw	s1,40(a4)
 20a:	0001                	nop
 20c:	1000                	addi	s0,sp,32
 20e:	01e1                	addi	gp,gp,24
 210:	0000                	unimp
 212:	6d0c                	flw	fa1,24(a0)
 214:	10000003          	lb	zero,256(zero) # 100 <__abi_tag-0x10078>
 218:	2e08f207          	0x2e08f207
 21c:	0002                	c.slli64	zero
 21e:	0d00                	addi	s0,sp,656
 220:	000001bb          	0x1bb
 224:	4405f407          	0x4405f407
 228:	0001                	nop
 22a:	0000                	unimp
 22c:	0f0d                	addi	t5,t5,3
 22e:	07000003          	lb	zero,112(zero) # 70 <__abi_tag-0x10108>
 232:	0ff5                	addi	t6,t6,29
 234:	000003d7          	0x3d7
 238:	0d02                	c.slli64	s10
 23a:	0224                	addi	s1,sp,264
 23c:	0000                	unimp
 23e:	bc14f607          	0xbc14f607
 242:	04000003          	lb	zero,64(zero) # 40 <__abi_tag-0x10138>
 246:	580d                	li	a6,-29
 248:	0002                	c.slli64	zero
 24a:	0700                	addi	s0,sp,896
 24c:	13f9                	addi	t2,t2,-2
 24e:	045c                	addi	a5,sp,516
 250:	0000                	unimp
 252:	0008                	0x8
 254:	ec0e                	fsw	ft3,24(sp)
 256:	0001                	nop
 258:	0f00                	addi	s0,sp,912
 25a:	ec04                	fsw	fs1,24(s0)
 25c:	0001                	nop
 25e:	1000                	addi	s0,sp,32
 260:	00000233          	add	tp,zero,zero
 264:	6a12                	flw	fs4,4(sp)
 266:	0002                	c.slli64	zero
 268:	1c00                	addi	s0,sp,560
 26a:	08010107          	0x8010107
 26e:	00000293          	li	t0,0
 272:	00028707          	0x28707
 276:	0700                	addi	s0,sp,896
 278:	44050103          	lb	sp,1088(a0) # 12440 <__BSS_END__+0x418>
 27c:	0001                	nop
 27e:	0000                	unimp
 280:	0001cb07          	flq	fs6,0(gp) # 0 <__abi_tag-0x10178>
 284:	0700                	addi	s0,sp,896
 286:	0104                	addi	s1,sp,128
 288:	0003d70f          	0x3d70f
 28c:	0200                	addi	s0,sp,256
 28e:	00009a07          	0x9a07
 292:	0700                	addi	s0,sp,896
 294:	0105                	addi	sp,sp,1
 296:	c00e                	sw	gp,0(sp)
 298:	0000                	unimp
 29a:	0400                	addi	s0,sp,512
 29c:	00029307          	0x29307
 2a0:	0700                	addi	s0,sp,896
 2a2:	0106                	slli	sp,sp,0x1
 2a4:	4115                	li	sp,5
 2a6:	0004                	0x4
 2a8:	0800                	addi	s0,sp,16
 2aa:	0001ad07          	flw	fs10,0(gp) # 12800 <__global_pointer$>
 2ae:	0700                	addi	s0,sp,896
 2b0:	c00e0107          	0xc00e0107
 2b4:	0000                	unimp
 2b6:	1800                	addi	s0,sp,48
 2b8:	0e00                	addi	s0,sp,784
 2ba:	023e                	slli	tp,tp,0xf
 2bc:	0000                	unimp
 2be:	023e040f          	0x23e040f
 2c2:	0000                	unimp
 2c4:	9810                	0x9810
 2c6:	0002                	c.slli64	zero
 2c8:	1100                	addi	s0,sp,160
 2ca:	0080                	addi	s0,sp,64
 2cc:	0000                	unimp
 2ce:	a30e                	fsd	ft3,384(sp)
 2d0:	0002                	c.slli64	zero
 2d2:	0f00                	addi	s0,sp,912
 2d4:	a304                	fsd	fs1,0(a4)
 2d6:	0002                	c.slli64	zero
 2d8:	1000                	addi	s0,sp,32
 2da:	02ad                	addi	t0,t0,11
 2dc:	0000                	unimp
 2de:	a011                	j	2e2 <__abi_tag-0xfe96>
 2e0:	0001                	nop
 2e2:	0e00                	addi	s0,sp,784
 2e4:	02b8                	addi	a4,sp,328
 2e6:	0000                	unimp
 2e8:	02b8040f          	0x2b8040f
 2ec:	0000                	unimp
 2ee:	c210                	sw	a2,0(a2)
 2f0:	0002                	c.slli64	zero
 2f2:	1100                	addi	s0,sp,160
 2f4:	00000073          	ecall
 2f8:	cd0e                	sw	gp,152(sp)
 2fa:	0002                	c.slli64	zero
 2fc:	0f00                	addi	s0,sp,912
 2fe:	cd04                	sw	s1,24(a0)
 300:	0002                	c.slli64	zero
 302:	1000                	addi	s0,sp,32
 304:	000002d7          	0x2d7
 308:	dd11                	beqz	a0,224 <__abi_tag-0xff54>
 30a:	0001                	nop
 30c:	0e00                	addi	s0,sp,784
 30e:	02e2                	slli	t0,t0,0x18
 310:	0000                	unimp
 312:	02e2040f          	0x2e2040f
 316:	0000                	unimp
 318:	ec10                	fsw	fa2,24(s0)
 31a:	0002                	c.slli64	zero
 31c:	1100                	addi	s0,sp,160
 31e:	00a8                	addi	a0,sp,72
 320:	0000                	unimp
 322:	f70e                	fsw	ft3,172(sp)
 324:	0002                	c.slli64	zero
 326:	0f00                	addi	s0,sp,912
 328:	f704                	fsw	fs1,40(a4)
 32a:	0002                	c.slli64	zero
 32c:	1000                	addi	s0,sp,32
 32e:	0301                	addi	t1,t1,0
 330:	0000                	unimp
 332:	0211                	addi	tp,tp,4
 334:	0e000003          	lb	zero,224(zero) # e0 <__abi_tag-0x10098>
 338:	030c                	addi	a1,sp,384
 33a:	0000                	unimp
 33c:	030c040f          	0x30c040f
 340:	0000                	unimp
 342:	1610                	addi	a2,sp,800
 344:	0f000003          	lb	zero,240(zero) # f0 <__abi_tag-0x10088>
 348:	7804                	flw	fs1,48(s0)
 34a:	0001                	nop
 34c:	1000                	addi	s0,sp,32
 34e:	0321                	addi	t1,t1,8
 350:	0000                	unimp
 352:	019d040f          	0x19d040f
 356:	0000                	unimp
 358:	2c10                	fld	fa2,24(s0)
 35a:	0f000003          	lb	zero,240(zero) # f0 <__abi_tag-0x10088>
 35e:	b204                	fsd	fs1,32(a2)
 360:	0001                	nop
 362:	1000                	addi	s0,sp,32
 364:	00000337          	lui	t1,0x0
 368:	01c7040f          	0x1c7040f
 36c:	0000                	unimp
 36e:	4210                	lw	a2,0(a2)
 370:	0f000003          	lb	zero,240(zero) # f0 <__abi_tag-0x10088>
 374:	dc04                	sw	s1,56(s0)
 376:	0001                	nop
 378:	1000                	addi	s0,sp,32
 37a:	034d                	addi	t1,t1,19
 37c:	0000                	unimp
 37e:	022e040f          	0x22e040f
 382:	0000                	unimp
 384:	5810                	lw	a2,48(s0)
 386:	0f000003          	lb	zero,240(zero) # f0 <__abi_tag-0x10088>
 38a:	9304                	0x9304
 38c:	0002                	c.slli64	zero
 38e:	1000                	addi	s0,sp,32
 390:	00000363          	beqz	zero,396 <__abi_tag-0xfde2>
 394:	02a8040f          	0x2a8040f
 398:	0000                	unimp
 39a:	6e10                	flw	fa2,24(a2)
 39c:	0f000003          	lb	zero,240(zero) # f0 <__abi_tag-0x10088>
 3a0:	bd04                	fsd	fs1,56(a0)
 3a2:	0002                	c.slli64	zero
 3a4:	1000                	addi	s0,sp,32
 3a6:	0379                	addi	t1,t1,30
 3a8:	0000                	unimp
 3aa:	02d2040f          	0x2d2040f
 3ae:	0000                	unimp
 3b0:	8410                	0x8410
 3b2:	0f000003          	lb	zero,240(zero) # f0 <__abi_tag-0x10088>
 3b6:	e704                	fsw	fs1,8(a4)
 3b8:	0002                	c.slli64	zero
 3ba:	1000                	addi	s0,sp,32
 3bc:	0000038f          	0x38f
 3c0:	02fc040f          	0x2fc040f
 3c4:	0000                	unimp
 3c6:	9a10                	0x9a10
 3c8:	0f000003          	lb	zero,240(zero) # f0 <__abi_tag-0x10088>
 3cc:	1104                	addi	s1,sp,160
 3ce:	10000003          	lb	zero,256(zero) # 100 <__abi_tag-0x10078>
 3d2:	03a5                	addi	t2,t2,9
 3d4:	0000                	unimp
 3d6:	0002ca03          	lbu	s4,0(t0)
 3da:	0700                	addi	s0,sp,896
 3dc:	121e                	slli	tp,tp,0x27
 3de:	00c0                	addi	s0,sp,68
 3e0:	0000                	unimp
 3e2:	250c                	fld	fa1,8(a0)
 3e4:	0002                	c.slli64	zero
 3e6:	0400                	addi	s0,sp,512
 3e8:	d7081f07          	0xd7081f07
 3ec:	0d000003          	lb	zero,208(zero) # d0 <__abi_tag-0x100a8>
 3f0:	0280                	addi	s0,sp,320
 3f2:	0000                	unimp
 3f4:	b00f2107          	flw	ft2,-1280(t5)
 3f8:	00000003          	lb	zero,0(zero) # 0 <__abi_tag-0x10178>
 3fc:	0300                	addi	s0,sp,384
 3fe:	0322                	slli	t1,t1,0x8
 400:	0000                	unimp
 402:	b4127b07          	0xb4127b07
 406:	0000                	unimp
 408:	1300                	addi	s0,sp,416
 40a:	0710                	addi	a2,sp,896
 40c:	05da                	slli	a1,a1,0x16
 40e:	0411                	addi	s0,s0,4
 410:	0000                	unimp
 412:	5814                	lw	a3,48(s0)
 414:	07000003          	lb	zero,112(zero) # 70 <__abi_tag-0x10108>
 418:	0adc                	addi	a5,sp,340
 41a:	0411                	addi	s0,s0,4
 41c:	0000                	unimp
 41e:	0e14                	addi	a3,sp,784
 420:	0002                	c.slli64	zero
 422:	0700                	addi	s0,sp,896
 424:	0bdd                	addi	s7,s7,23
 426:	0421                	addi	s0,s0,8
 428:	0000                	unimp
 42a:	4114                	lw	a3,0(a0)
 42c:	07000003          	lb	zero,112(zero) # 70 <__abi_tag-0x10108>
 430:	0bde                	slli	s7,s7,0x17
 432:	0431                	addi	s0,s0,12
 434:	0000                	unimp
 436:	0900                	addi	s0,sp,144
 438:	00a8                	addi	a0,sp,72
 43a:	0000                	unimp
 43c:	0421                	addi	s0,s0,8
 43e:	0000                	unimp
 440:	2b0a                	fld	fs6,128(sp)
 442:	0000                	unimp
 444:	0f00                	addi	s0,sp,912
 446:	0900                	addi	s0,sp,144
 448:	00b4                	addi	a3,sp,72
 44a:	0000                	unimp
 44c:	0431                	addi	s0,s0,12
 44e:	0000                	unimp
 450:	2b0a                	fld	fs6,128(sp)
 452:	0000                	unimp
 454:	0700                	addi	s0,sp,896
 456:	0900                	addi	s0,sp,144
 458:	00c0                	addi	s0,sp,68
 45a:	0000                	unimp
 45c:	0441                	addi	s0,s0,16
 45e:	0000                	unimp
 460:	2b0a                	fld	fs6,128(sp)
 462:	0000                	unimp
 464:	0300                	addi	s0,sp,384
 466:	0c00                	addi	s0,sp,528
 468:	0294                	addi	a3,sp,320
 46a:	0000                	unimp
 46c:	0710                	addi	a2,sp,896
 46e:	08d8                	addi	a4,sp,84
 470:	045c                	addi	a5,sp,516
 472:	0000                	unimp
 474:	d50d                	beqz	a0,39e <__abi_tag-0xfdda>
 476:	0001                	nop
 478:	0700                	addi	s0,sp,896
 47a:	09df 03e3 0000      	0x3e309df
 480:	0000                	unimp
 482:	1d09                	addi	s10,s10,-30
 484:	0000                	unimp
 486:	6c00                	flw	fs0,24(s0)
 488:	0004                	0x4
 48a:	0a00                	addi	s0,sp,272
 48c:	0000002b          	0x2b
 490:	01020007          	0x1020007
 494:	c402                	sw	zero,8(sp)
 496:	0002                	c.slli64	zero
 498:	1500                	addi	s0,sp,672
 49a:	0820                	addi	s0,sp,24
 49c:	0e42                	slli	t3,t3,0x10
 49e:	04a4                	addi	s1,sp,584
 4a0:	0000                	unimp
 4a2:	c60d                	beqz	a2,4cc <__abi_tag-0xfcac>
 4a4:	0001                	nop
 4a6:	0800                	addi	s0,sp,16
 4a8:	0e44                	addi	s1,sp,788
 4aa:	010d                	addi	sp,sp,3
 4ac:	0000                	unimp
 4ae:	0d00                	addi	s0,sp,656
 4b0:	022d                	addi	tp,tp,11
 4b2:	0000                	unimp
 4b4:	4508                	lw	a0,8(a0)
 4b6:	1a08                	addi	a0,sp,304
 4b8:	0001                	nop
 4ba:	0c00                	addi	s0,sp,528
 4bc:	900d                	srli	s0,s0,0x23
 4be:	08000003          	lb	zero,128(zero) # 80 <__abi_tag-0x100f8>
 4c2:	0b46                	slli	s6,s6,0x11
 4c4:	04a9                	addi	s1,s1,10
 4c6:	0000                	unimp
 4c8:	0010                	0x10
 4ca:	730e                	flw	ft6,224(sp)
 4cc:	0004                	0x4
 4ce:	0900                	addi	s0,sp,144
 4d0:	009c                	addi	a5,sp,64
 4d2:	0000                	unimp
 4d4:	04b9                	addi	s1,s1,14
 4d6:	0000                	unimp
 4d8:	2b0a                	fld	fs6,128(sp)
 4da:	0000                	unimp
 4dc:	0300                	addi	s0,sp,384
 4de:	1600                	addi	s0,sp,800
 4e0:	00000363          	beqz	zero,4e6 <__abi_tag-0xfc92>
 4e4:	4708                	lw	a0,8(a4)
 4e6:	0004a403          	lw	s0,0(s1)
 4ea:	0400                	addi	s0,sp,512
 4ec:	0305                	addi	t1,t1,1
 4ee:	0178                	addi	a4,sp,140
 4f0:	0001                	nop
 4f2:	3800                	fld	fs0,48(s0)
 4f4:	0000                	unimp
 4f6:	0400                	addi	s0,sp,512
 4f8:	3600                	fld	fs0,40(a2)
 4fa:	0001                	nop
 4fc:	0400                	addi	s0,sp,512
 4fe:	c901                	beqz	a0,50e <__abi_tag-0xfc6a>
 500:	0000                	unimp
 502:	0c00                	addi	s0,sp,528
 504:	03d6                	slli	t2,t2,0x15
 506:	0000                	unimp
 508:	0019                	c.nop	6
 50a:	0000                	unimp
 50c:	0181                	addi	gp,gp,0
 50e:	0000                	unimp
 510:	9502                	jalr	a0
 512:	01000003          	lb	zero,16(zero) # 10 <__abi_tag-0x10168>
 516:	00360b17          	auipc	s6,0x360
 51a:	0000                	unimp
 51c:	0305                	addi	t1,t1,1
 51e:	2014                	fld	fa3,0(s0)
 520:	0001                	nop
 522:	69050403          	lb	s0,1680(a0)
 526:	746e                	flw	fs0,248(sp)
 528:	0400                	addi	s0,sp,512
 52a:	0000002f          	0x2f
 52e:	3500                	fld	fs0,40(a0)
 530:	0001                	nop
 532:	0400                	addi	s0,sp,512
 534:	6b00                	flw	fs0,16(a4)
 536:	0001                	nop
 538:	0400                	addi	s0,sp,512
 53a:	0c01                	addi	s8,s8,0
 53c:	0004                	0x4
 53e:	0c00                	addi	s0,sp,528
 540:	03d2                	slli	t2,t2,0x14
 542:	0000                	unimp
 544:	0019                	c.nop	6
 546:	0000                	unimp
 548:	0424                	addi	s1,sp,520
 54a:	0001                	nop
 54c:	0094                	addi	a3,sp,64
 54e:	0000                	unimp
 550:	01a8                	addi	a0,sp,200
 552:	0000                	unimp
 554:	0402                	c.slli64	s0
 556:	6905                	lui	s2,0x1
 558:	746e                	flw	fs0,248(sp)
 55a:	0300                	addi	s0,sp,384
 55c:	03c6                	slli	t2,t2,0x11
 55e:	0000                	unimp
 560:	d102                	sw	zero,160(sp)
 562:	00003d17          	auipc	s10,0x3
 566:	0400                	addi	s0,sp,512
 568:	002c                	addi	a1,sp,8
 56a:	0000                	unimp
 56c:	0405                	addi	s0,s0,1
 56e:	00020107          	0x20107
 572:	0500                	addi	s0,sp,640
 574:	0508                	addi	a0,sp,640
 576:	01e9                	addi	gp,gp,26
 578:	0000                	unimp
 57a:	1005                	c.nop	-31
 57c:	3204                	fld	fs1,32(a2)
 57e:	0002                	c.slli64	zero
 580:	0600                	addi	s0,sp,768
 582:	005d                	c.nop	23
 584:	0000                	unimp
 586:	005d                	c.nop	23
 588:	0000                	unimp
 58a:	04080007          	0x4080007
 58e:	00000063          	beqz	zero,58e <__abi_tag-0xfbea>
 592:	7809                	lui	a6,0xfffe2
 594:	0000                	unimp
 596:	0a00                	addi	s0,sp,272
 598:	0025                	c.nop	9
 59a:	0000                	unimp
 59c:	780a                	flw	fa6,160(sp)
 59e:	0000                	unimp
 5a0:	0a00                	addi	s0,sp,272
 5a2:	0078                	addi	a4,sp,12
 5a4:	0000                	unimp
 5a6:	0800                	addi	s0,sp,16
 5a8:	7e04                	flw	fs1,56(a2)
 5aa:	0000                	unimp
 5ac:	0800                	addi	s0,sp,16
 5ae:	8404                	0x8404
 5b0:	0000                	unimp
 5b2:	0500                	addi	s0,sp,640
 5b4:	0801                	addi	a6,a6,0
 5b6:	00000253          	fadd.s	ft4,ft0,ft0,rne
 5ba:	0003b30b          	0x3b30b
 5be:	0100                	addi	s0,sp,128
 5c0:	0f2d                	addi	t5,t5,11
 5c2:	0052                	c.slli	zero,0x14
 5c4:	0000                	unimp
 5c6:	0004e90b          	0x4e90b
 5ca:	0100                	addi	s0,sp,128
 5cc:	00520f2f          	0x520f2f
 5d0:	0000                	unimp
 5d2:	dd0c                	sw	a1,56(a0)
 5d4:	01000003          	lb	zero,16(zero) # 10 <__abi_tag-0x10168>
 5d8:	0160                	addi	s0,sp,140
 5da:	04b4                	addi	a3,sp,584
 5dc:	0001                	nop
 5de:	0004                	0x4
 5e0:	0000                	unimp
 5e2:	9c01                	0x9c01
 5e4:	ed0d                	bnez	a0,61e <__abi_tag-0xfb5a>
 5e6:	01000003          	lb	zero,16(zero) # 10 <__abi_tag-0x10168>
 5ea:	0144                	addi	s1,sp,132
 5ec:	0424                	addi	s1,sp,520
 5ee:	0001                	nop
 5f0:	0090                	addi	a2,sp,64
 5f2:	0000                	unimp
 5f4:	9c01                	0x9c01
 5f6:	020e                	slli	tp,tp,0x3
 5f8:	0004                	0x4
 5fa:	0100                	addi	s0,sp,128
 5fc:	1644                	addi	s1,sp,804
 5fe:	0025                	c.nop	9
 600:	0000                	unimp
 602:	0000                	unimp
 604:	0000                	unimp
 606:	fd0e                	fsw	ft3,184(sp)
 608:	01000003          	lb	zero,16(zero) # 10 <__abi_tag-0x10168>
 60c:	2344                	fld	fs1,128(a4)
 60e:	0078                	addi	a4,sp,12
 610:	0000                	unimp
 612:	002c                	addi	a1,sp,8
 614:	0000                	unimp
 616:	cd0e                	sw	gp,152(sp)
 618:	01000003          	lb	zero,16(zero) # 10 <__abi_tag-0x10168>
 61c:	3044                	fld	fs1,160(s0)
 61e:	0078                	addi	a4,sp,12
 620:	0000                	unimp
 622:	0058                	addi	a4,sp,4
 624:	0000                	unimp
 626:	0004070f          	0x4070f
 62a:	0100                	addi	s0,sp,128
 62c:	00381057          	0x381057
 630:	0000                	unimp
 632:	0084                	addi	s1,sp,64
 634:	0000                	unimp
 636:	5c10                	lw	a2,56(s0)
 638:	0104                	addi	s1,sp,128
 63a:	3400                	fld	fs0,40(s0)
 63c:	0000                	unimp
 63e:	1100                	addi	s0,sp,160
 640:	0069                	c.nop	26
 642:	5801                	li	a6,-32
 644:	00002c0f          	0x2c0f
 648:	9700                	0x9700
 64a:	0000                	unimp
 64c:	1200                	addi	s0,sp,288
 64e:	0488                	addi	a0,sp,576
 650:	0001                	nop
 652:	025a0113          	addi	sp,s4,37
 656:	01130083          	lb	ra,17(t1) # 11 <__abi_tag-0x10167>
 65a:	0084025b          	0x84025b
 65e:	025c0113          	addi	sp,s8,37 # fffe0025 <__global_pointer$+0xfffcd825>
 662:	0085                	addi	ra,ra,1
 664:	0000                	unimp
	...

Disassembly of section .debug_abbrev:

00000000 <.debug_abbrev>:
   0:	1101                	addi	sp,sp,-32
   2:	1000                	addi	s0,sp,32
   4:	1106                	slli	sp,sp,0x21
   6:	1201                	addi	tp,tp,-32
   8:	0301                	addi	t1,t1,0
   a:	1b0e                	slli	s6,s6,0x23
   c:	250e                	fld	fa0,192(sp)
   e:	130e                	slli	t1,t1,0x23
  10:	0005                	c.nop	1
  12:	0000                	unimp
  14:	1101                	addi	sp,sp,-32
  16:	2501                	jal	616 <__abi_tag-0xfb62>
  18:	130e                	slli	t1,t1,0x23
  1a:	1b0e030b          	0x1b0e030b
  1e:	100e                	c.slli	zero,0x23
  20:	02000017          	auipc	zero,0x2000
  24:	0024                	addi	s1,sp,8
  26:	0b3e0b0b          	0xb3e0b0b
  2a:	00000e03          	lb	t3,0(zero) # 0 <__abi_tag-0x10178>
  2e:	03001603          	lh	a2,48(zero) # 30 <__abi_tag-0x10148>
  32:	3a0e                	fld	fs4,224(sp)
  34:	390b3b0b          	0x390b3b0b
  38:	0013490b          	0x13490b
  3c:	0400                	addi	s0,sp,512
  3e:	0024                	addi	s1,sp,8
  40:	0b3e0b0b          	0xb3e0b0b
  44:	00000803          	lb	a6,0(zero) # 0 <__abi_tag-0x10178>
  48:	0f05                	addi	t5,t5,1
  4a:	0b00                	addi	s0,sp,400
  4c:	0600000b          	0x600000b
  50:	0b0b0113          	addi	sp,s6,176 # 3605c6 <__global_pointer$+0x34ddc6>
  54:	0b3a                	slli	s6,s6,0xe
  56:	0b39053b          	0xb39053b
  5a:	1301                	addi	t1,t1,-32
  5c:	0000                	unimp
  5e:	03000d07          	0x3000d07
  62:	3a0e                	fld	fs4,224(sp)
  64:	39053b0b          	0x39053b0b
  68:	3813490b          	0x3813490b
  6c:	0800000b          	0x800000b
  70:	0016                	c.slli	zero,0x5
  72:	0b3a0e03          	lb	t3,179(s4)
  76:	0b39053b          	0xb39053b
  7a:	1349                	addi	t1,t1,-14
  7c:	0000                	unimp
  7e:	0109                	addi	sp,sp,2
  80:	4901                	li	s2,0
  82:	00130113          	addi	sp,t1,1
  86:	0a00                	addi	s0,sp,272
  88:	0021                	c.nop	8
  8a:	1349                	addi	t1,t1,-14
  8c:	00000b2f          	0xb2f
  90:	0300340b          	0x300340b
  94:	3a0e                	fld	fs4,224(sp)
  96:	390b3b0b          	0x390b3b0b
  9a:	3f13490b          	0x3f13490b
  9e:	0019                	c.nop	6
  a0:	0c00                	addi	s0,sp,528
  a2:	0e030113          	addi	sp,t1,224
  a6:	0b3a0b0b          	0xb3a0b0b
  aa:	0b390b3b          	0xb390b3b
  ae:	1301                	addi	t1,t1,-32
  b0:	0000                	unimp
  b2:	0d0d                	addi	s10,s10,3
  b4:	0300                	addi	s0,sp,384
  b6:	3a0e                	fld	fs4,224(sp)
  b8:	390b3b0b          	0x390b3b0b
  bc:	3813490b          	0x3813490b
  c0:	0e00000b          	0xe00000b
  c4:	0026                	c.slli	zero,0x9
  c6:	1349                	addi	t1,t1,-14
  c8:	0000                	unimp
  ca:	0b000f0f          	0xb000f0f
  ce:	0013490b          	0x13490b
  d2:	1000                	addi	s0,sp,32
  d4:	13490037          	lui	zero,0x13490
  d8:	0000                	unimp
  da:	1311                	addi	t1,t1,-28
  dc:	0300                	addi	s0,sp,384
  de:	3c0e                	fld	fs8,224(sp)
  e0:	0019                	c.nop	6
  e2:	1200                	addi	s0,sp,288
  e4:	0e030113          	addi	sp,t1,224
  e8:	0b3a0b0b          	0xb3a0b0b
  ec:	0b39053b          	0xb39053b
  f0:	1301                	addi	t1,t1,-32
  f2:	0000                	unimp
  f4:	0b011713          	0xb011713
  f8:	3b0b3a0b          	0x3b0b3a0b
  fc:	010b390b          	0x10b390b
 100:	14000013          	li	zero,320
 104:	000d                	c.nop	3
 106:	0b3a0e03          	lb	t3,179(s4)
 10a:	0b390b3b          	0xb390b3b
 10e:	1349                	addi	t1,t1,-14
 110:	0000                	unimp
 112:	1315                	addi	t1,t1,-27
 114:	0b01                	addi	s6,s6,0
 116:	3b0b3a0b          	0x3b0b3a0b
 11a:	010b390b          	0x10b390b
 11e:	16000013          	li	zero,352
 122:	0034                	addi	a3,sp,8
 124:	0b3a0e03          	lb	t3,179(s4)
 128:	0b390b3b          	0xb390b3b
 12c:	1349                	addi	t1,t1,-14
 12e:	0188                	addi	a0,sp,192
 130:	0018020b          	0x18020b
 134:	0000                	unimp
 136:	1101                	addi	sp,sp,-32
 138:	2501                	jal	738 <__abi_tag-0xfa40>
 13a:	130e                	slli	t1,t1,0x23
 13c:	1b0e030b          	0x1b0e030b
 140:	100e                	c.slli	zero,0x23
 142:	02000017          	auipc	zero,0x2000
 146:	0034                	addi	a3,sp,8
 148:	0b3a0e03          	lb	t3,179(s4)
 14c:	0b390b3b          	0xb390b3b
 150:	1349                	addi	t1,t1,-14
 152:	1802193f 24030000 	0x240300001802193f
 15a:	0b00                	addi	s0,sp,400
 15c:	030b3e0b          	0x30b3e0b
 160:	0008                	0x8
 162:	0400                	addi	s0,sp,512
 164:	0026                	c.slli	zero,0x9
 166:	1349                	addi	t1,t1,-14
 168:	0000                	unimp
 16a:	0100                	addi	s0,sp,128
 16c:	0111                	addi	sp,sp,4
 16e:	0e25                	addi	t3,t3,9
 170:	0e030b13          	addi	s6,t1,224
 174:	01110e1b          	0x1110e1b
 178:	0612                	slli	a2,a2,0x4
 17a:	1710                	addi	a2,sp,928
 17c:	0000                	unimp
 17e:	2402                	fld	fs0,0(sp)
 180:	0b00                	addi	s0,sp,400
 182:	030b3e0b          	0x30b3e0b
 186:	0008                	0x8
 188:	0300                	addi	s0,sp,384
 18a:	0016                	c.slli	zero,0x5
 18c:	0b3a0e03          	lb	t3,179(s4)
 190:	0b390b3b          	0xb390b3b
 194:	1349                	addi	t1,t1,-14
 196:	0000                	unimp
 198:	2604                	fld	fs1,8(a2)
 19a:	4900                	lw	s0,16(a0)
 19c:	05000013          	li	zero,80
 1a0:	0024                	addi	s1,sp,8
 1a2:	0b3e0b0b          	0xb3e0b0b
 1a6:	00000e03          	lb	t3,0(zero) # 0 <__abi_tag-0x10178>
 1aa:	0106                	slli	sp,sp,0x1
 1ac:	4901                	li	s2,0
 1ae:	00130113          	addi	sp,t1,1
 1b2:	0700                	addi	s0,sp,896
 1b4:	0021                	c.nop	8
 1b6:	0000                	unimp
 1b8:	0f08                	addi	a0,sp,912
 1ba:	0b00                	addi	s0,sp,400
 1bc:	0013490b          	0x13490b
 1c0:	0900                	addi	s0,sp,144
 1c2:	0115                	addi	sp,sp,5
 1c4:	13011927          	0x13011927
 1c8:	0000                	unimp
 1ca:	050a                	slli	a0,a0,0x2
 1cc:	4900                	lw	s0,16(a0)
 1ce:	0b000013          	li	zero,176
 1d2:	0034                	addi	a3,sp,8
 1d4:	0b3a0e03          	lb	t3,179(s4)
 1d8:	0b390b3b          	0xb390b3b
 1dc:	1349                	addi	t1,t1,-14
 1de:	193c193f 2e0c0000 	0x2e0c0000193c193f
 1e6:	3f00                	fld	fs0,56(a4)
 1e8:	0319                	addi	t1,t1,6
 1ea:	3a0e                	fld	fs4,224(sp)
 1ec:	390b3b0b          	0x390b3b0b
 1f0:	1119270b          	0x1119270b
 1f4:	1201                	addi	tp,tp,-32
 1f6:	4006                	0x4006
 1f8:	9718                	0x9718
 1fa:	1942                	slli	s2,s2,0x30
 1fc:	0000                	unimp
 1fe:	2e0d                	jal	530 <__abi_tag-0xfc48>
 200:	3f01                	jal	110 <__abi_tag-0x10068>
 202:	0319                	addi	t1,t1,6
 204:	3a0e                	fld	fs4,224(sp)
 206:	390b3b0b          	0x390b3b0b
 20a:	1119270b          	0x1119270b
 20e:	1201                	addi	tp,tp,-32
 210:	4006                	0x4006
 212:	9718                	0x9718
 214:	1942                	slli	s2,s2,0x30
 216:	0000                	unimp
 218:	050e                	slli	a0,a0,0x3
 21a:	0300                	addi	s0,sp,384
 21c:	3a0e                	fld	fs4,224(sp)
 21e:	390b3b0b          	0x390b3b0b
 222:	0213490b          	0x213490b
 226:	0f000017          	auipc	zero,0xf000
 22a:	0034                	addi	a3,sp,8
 22c:	0b3a0e03          	lb	t3,179(s4)
 230:	0b390b3b          	0xb390b3b
 234:	1349                	addi	t1,t1,-14
 236:	1702                	slli	a4,a4,0x20
 238:	0000                	unimp
 23a:	0b10                	addi	a2,sp,400
 23c:	1101                	addi	sp,sp,-32
 23e:	1201                	addi	tp,tp,-32
 240:	0006                	c.slli	zero,0x1
 242:	1100                	addi	s0,sp,160
 244:	0034                	addi	a3,sp,8
 246:	0b3a0803          	lb	a6,179(s4)
 24a:	0b390b3b          	0xb390b3b
 24e:	1349                	addi	t1,t1,-14
 250:	1702                	slli	a4,a4,0x20
 252:	0000                	unimp
 254:	8912                	mv	s2,tp
 256:	0182                	c.slli64	gp
 258:	1101                	addi	sp,sp,-32
 25a:	0001                	nop
 25c:	1300                	addi	s0,sp,416
 25e:	828a                	mv	t0,sp
 260:	0001                	nop
 262:	1802                	slli	a6,a6,0x20
 264:	4291                	li	t0,4
 266:	0018                	0x18
	...

Disassembly of section .debug_line:

00000000 <.debug_line>:
   0:	008d                	addi	ra,ra,3
   2:	0000                	unimp
   4:	002f0003          	lb	zero,2(t5)
   8:	0000                	unimp
   a:	0101                	addi	sp,sp,0
   c:	000d0efb          	0xd0efb
  10:	0101                	addi	sp,sp,0
  12:	0101                	addi	sp,sp,0
  14:	0000                	unimp
  16:	0100                	addi	s0,sp,128
  18:	0000                	unimp
  1a:	2e01                	jal	32a <__abi_tag-0xfe4e>
  1c:	2f2e                	fld	ft10,200(sp)
  1e:	64737973          	csrrci	s2,0x647,6
  22:	7065                	c.lui	zero,0xffff9
  24:	69722f73          	csrrs	t5,0x697,tp
  28:	00766373          	csrrsi	t1,0x7,12
  2c:	7300                	flw	fs0,32(a4)
  2e:	6174                	flw	fa3,68(a0)
  30:	7472                	flw	fs0,60(sp)
  32:	532e                	lw	t1,232(sp)
  34:	0100                	addi	s0,sp,128
  36:	0000                	unimp
  38:	0000                	unimp
  3a:	0205                	addi	tp,tp,1
  3c:	02f0                	addi	a2,sp,332
  3e:	0001                	nop
  40:	03013103          	0x3013103
  44:	0901                	addi	s2,s2,0
  46:	0004                	0x4
  48:	0301                	addi	t1,t1,0
  4a:	0902                	c.slli64	s2
  4c:	0004                	0x4
  4e:	0301                	addi	t1,t1,0
  50:	0901                	addi	s2,s2,0
  52:	0008                	0x8
  54:	0301                	addi	t1,t1,0
  56:	0901                	addi	s2,s2,0
  58:	0004                	0x4
  5a:	0301                	addi	t1,t1,0
  5c:	0901                	addi	s2,s2,0
  5e:	0004                	0x4
  60:	0301                	addi	t1,t1,0
  62:	0901                	addi	s2,s2,0
  64:	0004                	0x4
  66:	0301                	addi	t1,t1,0
  68:	0901                	addi	s2,s2,0
  6a:	0008                	0x8
  6c:	0301                	addi	t1,t1,0
  6e:	0901                	addi	s2,s2,0
  70:	0008                	0x8
  72:	0301                	addi	t1,t1,0
  74:	0902                	c.slli64	s2
  76:	0004                	0x4
  78:	0301                	addi	t1,t1,0
  7a:	0901                	addi	s2,s2,0
  7c:	0004                	0x4
  7e:	0301                	addi	t1,t1,0
  80:	090c                	addi	a1,sp,144
  82:	0004                	0x4
  84:	0301                	addi	t1,t1,0
  86:	0902                	c.slli64	s2
  88:	0008                	0x8
  8a:	0901                	addi	s2,s2,0
  8c:	0004                	0x4
  8e:	0100                	addi	s0,sp,128
  90:	ec01                	bnez	s0,a8 <__abi_tag-0x100d0>
  92:	0000                	unimp
  94:	0300                	addi	s0,sp,384
  96:	e600                	fsw	fs0,8(a2)
  98:	0000                	unimp
  9a:	0100                	addi	s0,sp,128
  9c:	fb01                	bnez	a4,ffffffac <__global_pointer$+0xfffed7ac>
  9e:	0d0e                	slli	s10,s10,0x3
  a0:	0100                	addi	s0,sp,128
  a2:	0101                	addi	sp,sp,0
  a4:	0001                	nop
  a6:	0000                	unimp
  a8:	0001                	nop
  aa:	0100                	addi	s0,sp,128
  ac:	2e2e                	fld	ft8,200(sp)
  ae:	736f702f          	0x736f702f
  b2:	7869                	lui	a6,0xffffa
  b4:	7469622f          	0x7469622f
  b8:	2e2e0073          	0x2e2e0073
  bc:	7469622f          	0x7469622f
  c0:	2e2e0073          	0x2e2e0073
  c4:	666c652f          	0x666c652f
  c8:	2e00                	fld	fs0,24(a2)
  ca:	2f2e                	fld	ft10,200(sp)
  cc:	64737973          	csrrci	s2,0x647,6
  d0:	7065                	c.lui	zero,0xffff9
  d2:	6e752f73          	csrrs	t5,0x6e7,a0
  d6:	7869                	lui	a6,0xffffa
  d8:	7379732f          	0x7379732f
  dc:	2f76                	fld	ft10,344(sp)
  de:	696c                	flw	fa1,84(a0)
  e0:	756e                	flw	fa0,248(sp)
  e2:	2f78                	fld	fa4,216(a4)
  e4:	6962                	flw	fs2,24(sp)
  e6:	7374                	flw	fa3,100(a4)
  e8:	2e00                	fld	fs0,24(a2)
  ea:	2f2e                	fld	ft10,200(sp)
  ec:	6e69                	lui	t3,0x1a
  ee:	7465                	lui	s0,0xffff9
  f0:	74656e2f          	0x74656e2f
  f4:	6e69                	lui	t3,0x1a
  f6:	7465                	lui	s0,0xffff9
  f8:	2e00                	fld	fs0,24(a2)
  fa:	2f2e                	fld	ft10,200(sp)
  fc:	64737973          	csrrci	s2,0x647,6
 100:	7065                	c.lui	zero,0xffff9
 102:	69722f73          	csrrs	t5,0x697,tp
 106:	2f766373          	csrrsi	t1,0x2f7,12
 10a:	706e                	flw	ft0,248(sp)
 10c:	6c74                	flw	fa3,92(s0)
 10e:	0000                	unimp
 110:	7974                	flw	fa3,116(a0)
 112:	6570                	flw	fa2,76(a0)
 114:	00682e73          	csrrs	t3,0x6,a6
 118:	0001                	nop
 11a:	7300                	flw	fs0,32(a4)
 11c:	6474                	flw	fa3,76(s0)
 11e:	6e69                	lui	t3,0x1a
 120:	2d74                	fld	fa3,216(a0)
 122:	6e69                	lui	t3,0x1a
 124:	6e74                	flw	fa3,92(a2)
 126:	682e                	flw	fa6,200(sp)
 128:	0200                	addi	s0,sp,256
 12a:	0000                	unimp
 12c:	69647473          	csrrci	s0,0x696,8
 130:	746e                	flw	fs0,248(sp)
 132:	752d                	lui	a0,0xfffeb
 134:	6e69                	lui	t3,0x1a
 136:	6e74                	flw	fa3,92(a2)
 138:	682e                	flw	fa6,200(sp)
 13a:	0200                	addi	s0,sp,256
 13c:	0000                	unimp
 13e:	6c65                	lui	s8,0x19
 140:	2e66                	fld	ft8,88(sp)
 142:	0068                	addi	a0,sp,12
 144:	73000003          	lb	zero,1840(zero) # 730 <__abi_tag-0xfa48>
 148:	616b636f          	jal	t1,b675e <__global_pointer$+0xa3f5e>
 14c:	6464                	flw	fs1,76(s0)
 14e:	2e72                	fld	ft8,280(sp)
 150:	0068                	addi	a0,sp,12
 152:	0002                	c.slli64	zero
 154:	7300                	flw	fs0,32(a4)
 156:	656b636f          	jal	t1,b67ac <__global_pointer$+0xa3fac>
 15a:	2e74                	fld	fa3,216(a2)
 15c:	0068                	addi	a0,sp,12
 15e:	0004                	0x4
 160:	6900                	flw	fs0,16(a0)
 162:	2e6e                	fld	ft8,216(sp)
 164:	0068                	addi	a0,sp,12
 166:	0005                	c.nop	1
 168:	6100                	flw	fs0,0(a0)
 16a:	6962                	flw	fs2,24(sp)
 16c:	6e2d                	lui	t3,0xb
 16e:	2e65746f          	jal	s0,57454 <__global_pointer$+0x44c54>
 172:	00000063          	beqz	zero,172 <__abi_tag-0x10006>
 176:	7400                	flw	fs0,40(s0)
 178:	736c                	flw	fa1,100(a4)
 17a:	682e                	flw	fa6,200(sp)
 17c:	0600                	addi	s0,sp,768
 17e:	0000                	unimp
 180:	2300                	fld	fs0,0(a4)
 182:	0000                	unimp
 184:	0300                	addi	s0,sp,384
 186:	1d00                	addi	s0,sp,688
 188:	0000                	unimp
 18a:	0100                	addi	s0,sp,128
 18c:	fb01                	bnez	a4,9c <__abi_tag-0x100dc>
 18e:	0d0e                	slli	s10,s10,0x3
 190:	0100                	addi	s0,sp,128
 192:	0101                	addi	sp,sp,0
 194:	0001                	nop
 196:	0000                	unimp
 198:	0001                	nop
 19a:	0100                	addi	s0,sp,128
 19c:	6900                	flw	fs0,16(a0)
 19e:	696e                	flw	fs2,216(sp)
 1a0:	2e74                	fld	fa3,216(a2)
 1a2:	00000063          	beqz	zero,1a2 <__abi_tag-0xffd6>
 1a6:	0000                	unimp
 1a8:	0155                	addi	sp,sp,21
 1aa:	0000                	unimp
 1ac:	007c0003          	lb	zero,7(s8) # 19007 <__global_pointer$+0x6807>
 1b0:	0000                	unimp
 1b2:	0101                	addi	sp,sp,0
 1b4:	000d0efb          	0xd0efb
 1b8:	0101                	addi	sp,sp,0
 1ba:	0101                	addi	sp,sp,0
 1bc:	0000                	unimp
 1be:	0100                	addi	s0,sp,128
 1c0:	0000                	unimp
 1c2:	2f01                	jal	8d2 <__abi_tag-0xf8a6>
 1c4:	6f68                	flw	fa0,92(a4)
 1c6:	656d                	lui	a0,0x1b
 1c8:	6863792f          	0x6863792f
 1cc:	6e65                	lui	t3,0x19
 1ce:	7369722f          	0x7369722f
 1d2:	32337663          	bgeu	t1,gp,4fe <__abi_tag-0xfc7a>
 1d6:	672d                	lui	a4,0xb
 1d8:	6c2d6363          	bltu	s10,sp,89e <__abi_tag-0xf8da>
 1dc:	6e69                	lui	t3,0x1a
 1de:	7875                	lui	a6,0xffffd
 1e0:	62696c2f          	0x62696c2f
 1e4:	6363672f          	0x6363672f
 1e8:	7369722f          	0x7369722f
 1ec:	32337663          	bgeu	t1,gp,518 <__abi_tag-0xfc60>
 1f0:	752d                	lui	a0,0xfffeb
 1f2:	6b6e                	flw	fs6,216(sp)
 1f4:	6f6e                	flw	ft10,216(sp)
 1f6:	6c2d6e77          	0x6c2d6e77
 1fa:	6e69                	lui	t3,0x1a
 1fc:	7875                	lui	a6,0xffffd
 1fe:	672d                	lui	a4,0xb
 200:	756e                	flw	fa0,248(sp)
 202:	2e30312f          	0x2e30312f
 206:	2e32                	fld	ft8,264(sp)
 208:	2f30                	fld	fa2,88(a4)
 20a:	6e69                	lui	t3,0x1a
 20c:	64756c63          	bltu	a0,t2,864 <__abi_tag-0xf914>
 210:	0065                	c.nop	25
 212:	6500                	flw	fs0,8(a0)
 214:	666c                	flw	fa1,76(a2)
 216:	692d                	lui	s2,0xb
 218:	696e                	flw	fs2,216(sp)
 21a:	2e74                	fld	fa3,216(a2)
 21c:	00000063          	beqz	zero,21c <__abi_tag-0xff5c>
 220:	7300                	flw	fs0,32(a4)
 222:	6474                	flw	fa3,76(s0)
 224:	6564                	flw	fs1,76(a0)
 226:	2e66                	fld	ft8,88(sp)
 228:	0068                	addi	a0,sp,12
 22a:	0001                	nop
 22c:	0000                	unimp
 22e:	0105                	addi	sp,sp,1
 230:	0500                	addi	s0,sp,640
 232:	2402                	fld	fs0,0(sp)
 234:	0104                	addi	s1,sp,128
 236:	0300                	addi	s0,sp,384
 238:	00c4                	addi	s1,sp,68
 23a:	0501                	addi	a0,a0,0
 23c:	09120303          	lb	t1,145(tp) # 91 <__abi_tag-0x100e7>
 240:	0000                	unimp
 242:	0501                	addi	a0,a0,0
 244:	0601                	addi	a2,a2,0
 246:	00096e03          	0x96e03
 24a:	0100                	addi	s0,sp,128
 24c:	2805                	jal	27c <__abi_tag-0xfefc>
 24e:	0c091203          	lh	tp,192(s2) # b0c0 <__abi_tag-0x50b8>
 252:	0100                	addi	s0,sp,128
 254:	0105                	addi	sp,sp,1
 256:	14096e03          	0x14096e03
 25a:	0100                	addi	s0,sp,128
 25c:	2805                	jal	28c <__abi_tag-0xfeec>
 25e:	14091203          	lh	tp,320(s2)
 262:	0100                	addi	s0,sp,128
 264:	0305                	addi	t1,t1,1
 266:	0306                	slli	t1,t1,0x1
 268:	0901                	addi	s2,s2,0
 26a:	0004                	0x4
 26c:	0501                	addi	a0,a0,0
 26e:	0308                	addi	a0,sp,384
 270:	0900                	addi	s0,sp,144
 272:	0000                	unimp
 274:	0501                	addi	a0,a0,0
 276:	0316                	slli	t1,t1,0x5
 278:	0900                	addi	s0,sp,144
 27a:	0000                	unimp
 27c:	0501                	addi	a0,a0,0
 27e:	00030603          	lb	a2,0(t1)
 282:	0009                	c.nop	2
 284:	0100                	addi	s0,sp,128
 286:	0f05                	addi	t5,t5,1
 288:	10090003          	lb	zero,256(s2)
 28c:	0100                	addi	s0,sp,128
 28e:	0705                	addi	a4,a4,1
 290:	0200                	addi	s0,sp,256
 292:	0304                	addi	s1,sp,384
 294:	0306                	slli	t1,t1,0x1
 296:	0901                	addi	s2,s2,0
 298:	0004                	0x4
 29a:	0501                	addi	a0,a0,0
 29c:	0008                	0x8
 29e:	0402                	c.slli64	s0
 2a0:	00030603          	lb	a2,0(t1)
 2a4:	0009                	c.nop	2
 2a6:	0100                	addi	s0,sp,128
 2a8:	2105                	jal	6c8 <__abi_tag-0xfab0>
 2aa:	0200                	addi	s0,sp,256
 2ac:	0304                	addi	s1,sp,384
 2ae:	10097f03          	0x10097f03
 2b2:	0100                	addi	s0,sp,128
 2b4:	0805                	addi	a6,a6,1
 2b6:	0200                	addi	s0,sp,256
 2b8:	0304                	addi	s1,sp,384
 2ba:	04090103          	lb	sp,64(s2)
 2be:	0100                	addi	s0,sp,128
 2c0:	2005                	jal	2e0 <__abi_tag-0xfe98>
 2c2:	0200                	addi	s0,sp,256
 2c4:	0304                	addi	s1,sp,384
 2c6:	0306                	slli	t1,t1,0x1
 2c8:	097f                	0x97f
 2ca:	0004                	0x4
 2cc:	0501                	addi	a0,a0,0
 2ce:	0016                	c.slli	zero,0x5
 2d0:	0402                	c.slli64	s0
 2d2:	09000303          	lb	t1,144(zero) # 90 <__abi_tag-0x100e8>
 2d6:	0000                	unimp
 2d8:	0501                	addi	a0,a0,0
 2da:	04020003          	lb	zero,64(tp) # 40 <__abi_tag-0x10138>
 2de:	00030603          	lb	a2,0(t1)
 2e2:	0009                	c.nop	2
 2e4:	0100                	addi	s0,sp,128
 2e6:	0105                	addi	sp,sp,1
 2e8:	08090203          	lb	tp,128(s2)
 2ec:	0100                	addi	s0,sp,128
 2ee:	0306                	slli	t1,t1,0x1
 2f0:	00240907          	0x240907
 2f4:	0301                	addi	t1,t1,0
 2f6:	090a                	slli	s2,s2,0x2
 2f8:	0000                	unimp
 2fa:	0901                	addi	s2,s2,0
 2fc:	0004                	0x4
 2fe:	0100                	addi	s0,sp,128
 300:	01              	Address 0x0000000000000300 is out of bounds.


Disassembly of section .debug_frame:

00000000 <.debug_frame>:
   0:	000c                	0xc
   2:	0000                	unimp
   4:	ffff                	0xffff
   6:	ffff                	0xffff
   8:	7c010003          	lb	zero,1984(sp)
   c:	0d01                	addi	s10,s10,0
   e:	0002                	c.slli64	zero
  10:	0030                	addi	a2,sp,8
  12:	0000                	unimp
  14:	0000                	unimp
  16:	0000                	unimp
  18:	0424                	addi	s1,sp,520
  1a:	0001                	nop
  1c:	0090                	addi	a2,sp,64
  1e:	0000                	unimp
  20:	0e44                	addi	s1,sp,788
  22:	4820                	lw	s0,80(s0)
  24:	0288                	addi	a0,sp,320
  26:	0492                	slli	s1,s1,0x4
  28:	8168                	0x8168
  2a:	8901                	andi	a0,a0,0
  2c:	94059303          	lh	t1,-1728(a1)
  30:	9506                	add	a0,a0,ra
  32:	44c17c07          	0x44c17c07
  36:	44c8                	lw	a0,12(s1)
  38:	44c9                	li	s1,18
  3a:	44d2                	lw	s1,20(sp)
  3c:	44d444d3          	0x44d444d3
  40:	44d5                	li	s1,21
  42:	000e                	c.slli	zero,0x3
  44:	000c                	0xc
  46:	0000                	unimp
  48:	0000                	unimp
  4a:	0000                	unimp
  4c:	04b4                	addi	a3,sp,584
  4e:	0001                	nop
  50:	0004                	0x4
	...

Disassembly of section .debug_str:

00000000 <.debug_str>:
   0:	2e2e                	fld	ft8,200(sp)
   2:	7379732f          	0x7379732f
   6:	6564                	flw	fs1,76(a0)
   8:	7370                	flw	fa2,100(a4)
   a:	7369722f          	0x7369722f
   e:	732f7663          	bgeu	t5,s2,73a <__abi_tag-0xfa3e>
  12:	6174                	flw	fa3,68(a0)
  14:	7472                	flw	fs0,60(sp)
  16:	532e                	lw	t1,232(sp)
  18:	2f00                	fld	fs0,24(a4)
  1a:	2f74706f          	j	47b10 <__global_pointer$+0x35310>
  1e:	6972                	flw	fs2,28(sp)
  20:	2d766373          	csrrsi	t1,0x2d7,12
  24:	2d756e67          	0x2d756e67
  28:	6f74                	flw	fa3,92(a4)
  2a:	68636c6f          	jal	s8,366b0 <__global_pointer$+0x23eb0>
  2e:	6961                	lui	s2,0x18
  30:	2d6e                	fld	fs10,216(sp)
  32:	656e                	flw	fa0,216(sp)
  34:	69722f77          	0x69722f77
  38:	2d766373          	csrrsi	t1,0x2d7,12
  3c:	2d756e67          	0x2d756e67
  40:	6f74                	flw	fa3,92(a4)
  42:	68636c6f          	jal	s8,366c8 <__global_pointer$+0x23ec8>
  46:	6961                	lui	s2,0x18
  48:	2f6e                	fld	ft10,216(sp)
  4a:	6972                	flw	fs2,28(sp)
  4c:	2d766373          	csrrsi	t1,0x2d7,12
  50:	62696c67          	0x62696c67
  54:	73632f63          	0x73632f63
  58:	0075                	c.nop	29
  5a:	20554e47          	fmsub.s	ft8,fa0,ft5,ft4,rmm
  5e:	5341                	li	t1,-16
  60:	3220                	fld	fs0,96(a2)
  62:	332e                	fld	ft6,232(sp)
  64:	2e36                	fld	ft8,328(sp)
  66:	0031                	c.nop	12
  68:	6c45                	lui	s8,0x11
  6a:	3366                	fld	ft6,120(sp)
  6c:	5f32                	lw	t5,44(sp)
  6e:	64726f57          	0x64726f57
  72:	7300                	flw	fs0,32(a4)
  74:	616b636f          	jal	t1,b668a <__global_pointer$+0xa3e8a>
  78:	6464                	flw	fs1,76(s0)
  7a:	5f72                	lw	t5,60(sp)
  7c:	7369                	lui	t1,0xffffa
  7e:	6f73006f          	j	30f74 <__global_pointer$+0x1e774>
  82:	64616b63          	bltu	sp,t1,6d8 <__abi_tag-0xfaa0>
  86:	7264                	flw	fs1,100(a2)
  88:	695f 616e 7072      	0x7072616e695f
  8e:	5f00                	lw	s0,56(a4)
  90:	755f 6e69 3374      	0x33746e69755f
  96:	5f32                	lw	t5,44(sp)
  98:	0074                	addi	a3,sp,12
  9a:	366e6973          	csrrsi	s2,0x366,28
  9e:	665f 6f6c 6977      	0x69776f6c665f
  a4:	666e                	flw	fa2,216(sp)
  a6:	6f73006f          	j	30f9c <__global_pointer$+0x1e79c>
  aa:	64616b63          	bltu	sp,t1,700 <__abi_tag-0xfa78>
  ae:	7264                	flw	fs1,100(a2)
  b0:	755f 006e 5f5f      	0x5f5f006e755f
  b6:	6975                	lui	s2,0x1d
  b8:	746e                	flw	fs0,248(sp)
  ba:	3631                	jal	fffffbc6 <__global_pointer$+0xfffed3c6>
  bc:	745f 7300 6f68      	0x6f687300745f
  c2:	7472                	flw	fs0,60(sp)
  c4:	6920                	flw	fs0,80(a0)
  c6:	746e                	flw	fs0,248(sp)
  c8:	4700                	lw	s0,8(a4)
  ca:	554e                	lw	a0,240(sp)
  cc:	4320                	lw	s0,64(a4)
  ce:	3131                	jal	fffffcda <__global_pointer$+0xfffed4da>
  d0:	3120                	fld	fs0,96(a0)
  d2:	2e30                	fld	fa2,88(a2)
  d4:	2e32                	fld	ft8,264(sp)
  d6:	2030                	fld	fa2,64(s0)
  d8:	6d2d                	lui	s10,0xb
  da:	646f6d63          	bltu	t5,t1,734 <__abi_tag-0xfa44>
  de:	6c65                	lui	s8,0x19
  e0:	6d3d                	lui	s10,0xf
  e2:	6465                	lui	s0,0x19
  e4:	6f6c                	flw	fa1,92(a4)
  e6:	6d2d2077          	0x6d2d2077
  ea:	7574                	flw	fa3,108(a0)
  ec:	656e                	flw	fa0,216(sp)
  ee:	723d                	lui	tp,0xfffef
  f0:	656b636f          	jal	t1,b6746 <__global_pointer$+0xa3f46>
  f4:	2074                	fld	fa3,192(s0)
  f6:	6d2d                	lui	s10,0xb
  f8:	7261                	lui	tp,0xffff8
  fa:	723d6863          	bltu	s10,gp,82a <__abi_tag-0xf94e>
  fe:	3376                	fld	ft6,376(sp)
 100:	6932                	flw	fs2,12(sp)
 102:	2061                	jal	18a <__abi_tag-0xffee>
 104:	6d2d                	lui	s10,0xb
 106:	6261                	lui	tp,0x18
 108:	3d69                	jal	ffffffa2 <__global_pointer$+0xfffed7a2>
 10a:	6c69                	lui	s8,0x1a
 10c:	3370                	fld	fa2,224(a4)
 10e:	2032                	fld	ft0,264(sp)
 110:	6d2d                	lui	s10,0xb
 112:	7261                	lui	tp,0xffff8
 114:	723d6863          	bltu	s10,gp,844 <__abi_tag-0xf934>
 118:	3376                	fld	ft6,376(sp)
 11a:	6932                	flw	fs2,12(sp)
 11c:	2061                	jal	1a4 <__abi_tag-0xffd4>
 11e:	672d                	lui	a4,0xb
 120:	2d20                	fld	fs0,88(a0)
 122:	2d20324f          	0x2d20324f
 126:	3d647473          	csrrci	s0,0x3d6,8
 12a:	31756e67          	0x31756e67
 12e:	2031                	jal	13a <__abi_tag-0x1003e>
 130:	662d                	lui	a2,0xb
 132:	38756e67          	0x38756e67
 136:	2d39                	jal	754 <__abi_tag-0xfa24>
 138:	6e69                	lui	t3,0x1a
 13a:	696c                	flw	fa1,84(a0)
 13c:	656e                	flw	fa0,216(sp)
 13e:	2d20                	fld	fs0,88(a0)
 140:	6d66                	flw	fs10,88(sp)
 142:	7265                	lui	tp,0xffff9
 144:	612d6567          	0x612d6567
 148:	6c6c                	flw	fa1,92(s0)
 14a:	632d                	lui	t1,0xb
 14c:	74736e6f          	jal	t3,37092 <__global_pointer$+0x24892>
 150:	6e61                	lui	t3,0x18
 152:	7374                	flw	fa3,100(a4)
 154:	2d20                	fld	fs0,88(a0)
 156:	7266                	flw	ft4,120(sp)
 158:	646e756f          	jal	a0,e779e <__global_pointer$+0xd4f9e>
 15c:	6e69                	lui	t3,0x1a
 15e:	616d2d67          	0x616d2d67
 162:	6874                	flw	fa3,84(s0)
 164:	2d20                	fld	fs0,88(a0)
 166:	6d66                	flw	fs10,88(sp)
 168:	7461                	lui	s0,0xffff8
 16a:	2d68                	fld	fa0,216(a0)
 16c:	7265                	lui	tp,0xffff9
 16e:	6e72                	flw	ft8,28(sp)
 170:	662d206f          	j	d27d2 <__global_pointer$+0xbffd2>
 174:	6f6e                	flw	ft10,216(sp)
 176:	732d                	lui	t1,0xfffeb
 178:	6174                	flw	fa3,68(a0)
 17a:	702d6b63          	bltu	s10,sp,890 <__abi_tag-0xf8e8>
 17e:	6f72                	flw	ft10,28(sp)
 180:	6574                	flw	fa3,76(a0)
 182:	726f7463          	bgeu	t5,t1,8aa <__abi_tag-0xf8ce>
 186:	2d20                	fld	fs0,88(a0)
 188:	7466                	flw	fs0,120(sp)
 18a:	736c                	flw	fa1,100(a4)
 18c:	6d2d                	lui	s10,0xb
 18e:	6c65646f          	jal	s0,56854 <__global_pointer$+0x44054>
 192:	693d                	lui	s2,0xf
 194:	696e                	flw	fs2,216(sp)
 196:	6974                	flw	fa3,84(a0)
 198:	6c61                	lui	s8,0x18
 19a:	652d                	lui	a0,0xb
 19c:	6578                	flw	fa4,76(a0)
 19e:	6f730063          	beq	t1,s7,87e <__abi_tag-0xf8fa>
 1a2:	64616b63          	bltu	sp,t1,7f8 <__abi_tag-0xf980>
 1a6:	7264                	flw	fs1,100(a2)
 1a8:	695f 7870 7300      	0x73007870695f
 1ae:	6e69                	lui	t3,0x1a
 1b0:	5f36                	lw	t5,108(sp)
 1b2:	706f6373          	csrrsi	t1,0x706,30
 1b6:	5f65                	li	t5,-7
 1b8:	6469                	lui	s0,0x1a
 1ba:	7300                	flw	fs0,32(a4)
 1bc:	6e69                	lui	t3,0x1a
 1be:	665f 6d61 6c69      	0x6c696d61665f
 1c4:	0079                	c.nop	30
 1c6:	686e                	flw	fa6,216(sp)
 1c8:	7264                	flw	fs1,100(a2)
 1ca:	7300                	flw	fs0,32(a4)
 1cc:	6e69                	lui	t3,0x1a
 1ce:	5f36                	lw	t5,108(sp)
 1d0:	6f70                	flw	fa2,92(a4)
 1d2:	7472                	flw	fs0,60(sp)
 1d4:	5f00                	lw	s0,56(a4)
 1d6:	695f 366e 755f      	0x755f366e695f
 1dc:	7300                	flw	fs0,32(a4)
 1de:	616b636f          	jal	t1,b67f4 <__global_pointer$+0xa3ff4>
 1e2:	6464                	flw	fs1,76(s0)
 1e4:	5f72                	lw	t5,60(sp)
 1e6:	736e                	flw	ft6,248(sp)
 1e8:	6c00                	flw	fs0,24(s0)
 1ea:	20676e6f          	jal	t3,763f0 <__global_pointer$+0x63bf0>
 1ee:	6f6c                	flw	fa1,92(a4)
 1f0:	676e                	flw	fa4,216(sp)
 1f2:	6920                	flw	fs0,80(a0)
 1f4:	746e                	flw	fs0,248(sp)
 1f6:	6c00                	flw	fs0,24(s0)
 1f8:	20676e6f          	jal	t3,763fe <__global_pointer$+0x63bfe>
 1fc:	6f6c                	flw	fa1,92(a4)
 1fe:	676e                	flw	fa4,216(sp)
 200:	7520                	flw	fs0,104(a0)
 202:	736e                	flw	ft6,248(sp)
 204:	6769                	lui	a4,0x1a
 206:	656e                	flw	fa0,216(sp)
 208:	2064                	fld	fs1,192(s0)
 20a:	6e69                	lui	t3,0x1a
 20c:	0074                	addi	a3,sp,12
 20e:	5f5f 3675 615f      	0x615f36755f5f
 214:	6464                	flw	fs1,76(s0)
 216:	3172                	fld	ft2,312(sp)
 218:	0036                	c.slli	zero,0xd
 21a:	5f5f 6975 746e      	0x746e69755f5f
 220:	5f38                	lw	a4,120(a4)
 222:	0074                	addi	a3,sp,12
 224:	5f6e6973          	csrrsi	s2,0x5f6,28
 228:	6461                	lui	s0,0x18
 22a:	7264                	flw	fs1,100(a2)
 22c:	6e00                	flw	fs0,24(a2)
 22e:	6d61                	lui	s10,0x18
 230:	0065                	c.nop	25
 232:	6f6c                	flw	fa1,92(a4)
 234:	676e                	flw	fa4,216(sp)
 236:	6420                	flw	fs0,72(s0)
 238:	6c62756f          	jal	a0,278fe <__global_pointer$+0x150fe>
 23c:	0065                	c.nop	25
 23e:	665f6173          	csrrsi	sp,0x665,30
 242:	6d61                	lui	s10,0x18
 244:	6c69                	lui	s8,0x1a
 246:	5f79                	li	t5,-2
 248:	0074                	addi	a3,sp,12
 24a:	6e75                	lui	t3,0x1d
 24c:	6e676973          	csrrsi	s2,0x6e6,14
 250:	6465                	lui	s0,0x19
 252:	6320                	flw	fs0,64(a4)
 254:	6168                	flw	fa0,68(a0)
 256:	0072                	c.slli	zero,0x1c
 258:	5f6e6973          	csrrsi	s2,0x5f6,28
 25c:	657a                	flw	fa0,156(sp)
 25e:	6f72                	flw	ft10,28(sp)
 260:	6e00                	flw	fs0,24(a2)
 262:	6e5f 6d61 7365      	0x73656d616e5f
 268:	007a                	c.slli	zero,0x1e
 26a:	6b636f73          	csrrsi	t5,0x6b6,6
 26e:	6461                	lui	s0,0x18
 270:	7264                	flw	fs1,100(a2)
 272:	695f 366e 6e00      	0x6e00366e695f
 278:	645f 7365 7363      	0x73637365645f
 27e:	007a                	c.slli	zero,0x1e
 280:	64615f73          	csrrwi	t5,0x646,2
 284:	7264                	flw	fs1,100(a2)
 286:	7300                	flw	fs0,32(a4)
 288:	6e69                	lui	t3,0x1a
 28a:	5f36                	lw	t5,108(sp)
 28c:	6166                	flw	ft2,88(sp)
 28e:	696d                	lui	s2,0x1b
 290:	796c                	flw	fa1,116(a0)
 292:	7300                	flw	fs0,32(a4)
 294:	6e69                	lui	t3,0x1a
 296:	5f36                	lw	t5,108(sp)
 298:	6461                	lui	s0,0x18
 29a:	7264                	flw	fs1,100(a2)
 29c:	7300                	flw	fs0,32(a4)
 29e:	5f61                	li	t5,-8
 2a0:	6164                	flw	fs1,68(a0)
 2a2:	6174                	flw	fa3,68(a0)
 2a4:	7300                	flw	fs0,32(a4)
 2a6:	6f68                	flw	fa0,92(a4)
 2a8:	7472                	flw	fs0,60(sp)
 2aa:	7520                	flw	fs0,104(a0)
 2ac:	736e                	flw	ft6,248(sp)
 2ae:	6769                	lui	a4,0x1a
 2b0:	656e                	flw	fa0,216(sp)
 2b2:	2064                	fld	fs1,192(s0)
 2b4:	6e69                	lui	t3,0x1a
 2b6:	0074                	addi	a3,sp,12
 2b8:	6b636f73          	csrrsi	t5,0x6b6,6
 2bc:	6461                	lui	s0,0x18
 2be:	7264                	flw	fs1,100(a2)
 2c0:	645f 006c 425f      	0x425f006c645f
 2c6:	006c6f6f          	jal	t5,c62cc <__global_pointer$+0xb3acc>
 2ca:	6e69                	lui	t3,0x1a
 2cc:	615f 6464 5f72      	0x5f726464615f
 2d2:	0074                	addi	a3,sp,12
 2d4:	6b636f73          	csrrsi	t5,0x6b6,6
 2d8:	6461                	lui	s0,0x18
 2da:	7264                	flw	fs1,100(a2)
 2dc:	655f 6e6f 7300      	0x73006e6f655f
 2e2:	616b636f          	jal	t1,b68f8 <__global_pointer$+0xa40f8>
 2e6:	6464                	flw	fs1,76(s0)
 2e8:	5f72                	lw	t5,60(sp)
 2ea:	7461                	lui	s0,0xffff8
 2ec:	5f00                	lw	s0,56(a4)
 2ee:	745f 7268 6165      	0x61657268745f
 2f4:	5f64                	lw	s1,124(a4)
 2f6:	666c6573          	csrrsi	a0,0x666,24
 2fa:	6e00                	flw	fs0,24(a2)
 2fc:	745f 7079 0065      	0x657079745f
 302:	6b636f73          	csrrsi	t5,0x6b6,6
 306:	6461                	lui	s0,0x18
 308:	7264                	flw	fs1,100(a2)
 30a:	785f 3532 7300      	0x73003532785f
 310:	6e69                	lui	t3,0x1a
 312:	705f 726f 0074      	0x74726f705f
 318:	5f5f 6e69 3374      	0x33746e695f5f
 31e:	5f32                	lw	t5,44(sp)
 320:	0074                	addi	a3,sp,12
 322:	6e69                	lui	t3,0x1a
 324:	705f 726f 5f74      	0x5f74726f705f
 32a:	0074                	addi	a3,sp,12
 32c:	665f6173          	csrrsi	sp,0x665,30
 330:	6d61                	lui	s10,0x18
 332:	6c69                	lui	s8,0x1a
 334:	0079                	c.nop	30
 336:	6c45                	lui	s8,0x11
 338:	3366                	fld	ft6,120(sp)
 33a:	5f32                	lw	t5,44(sp)
 33c:	684e                	flw	fa6,208(sp)
 33e:	7264                	flw	fs1,100(a2)
 340:	5f00                	lw	s0,56(a4)
 342:	755f 5f36 6461      	0x64615f36755f
 348:	7264                	flw	fs1,100(a2)
 34a:	61003233          	0x61003233
 34e:	6962                	flw	fs2,24(sp)
 350:	6e2d                	lui	t3,0xb
 352:	2e65746f          	jal	s0,57638 <__global_pointer$+0x44e38>
 356:	5f5f0063          	beq	t5,s5,936 <__abi_tag-0xf842>
 35a:	3675                	jal	ffffff06 <__global_pointer$+0xfffed706>
 35c:	615f 6464 3872      	0x38726464615f
 362:	5f00                	lw	s0,56(a4)
 364:	615f 6962 745f      	0x745f6962615f
 36a:	6761                	lui	a4,0x18
 36c:	7300                	flw	fs0,32(a4)
 36e:	616b636f          	jal	t1,b6984 <__global_pointer$+0xa4184>
 372:	6464                	flw	fs1,76(s0)
 374:	5f72                	lw	t5,60(sp)
 376:	6e69                	lui	t3,0x1a
 378:	7300                	flw	fs0,32(a4)
 37a:	616b636f          	jal	t1,b6990 <__global_pointer$+0xa4190>
 37e:	6464                	flw	fs1,76(s0)
 380:	0072                	c.slli	zero,0x1c
 382:	6b636f73          	csrrsi	t5,0x6b6,6
 386:	6461                	lui	s0,0x18
 388:	7264                	flw	fs1,100(a2)
 38a:	615f 3278 0035      	0x353278615f
 390:	6564                	flw	fs1,76(a0)
 392:	5f006373          	csrrsi	t1,0x5f0,0
 396:	4f49                	li	t5,18
 398:	735f 6474 6e69      	0x6e696474735f
 39e:	755f 6573 0064      	0x646573755f
 3a4:	74617473          	csrrci	s0,0x746,2
 3a8:	6369                	lui	t1,0x1a
 3aa:	722d                	lui	tp,0xfffeb
 3ac:	6c65                	lui	s8,0x19
 3ae:	632e636f          	jal	t1,e69e0 <__global_pointer$+0xd41e0>
 3b2:	5f00                	lw	s0,56(a4)
 3b4:	695f 696e 5f74      	0x5f74696e695f
 3ba:	7261                	lui	tp,0xffff8
 3bc:	6172                	flw	ft2,28(sp)
 3be:	5f79                	li	t5,-2
 3c0:	72617473          	csrrci	s0,0x726,2
 3c4:	0074                	addi	a3,sp,12
 3c6:	657a6973          	csrrsi	s2,0x657,20
 3ca:	745f 6500 766e      	0x766e6500745f
 3d0:	0070                	addi	a2,sp,12
 3d2:	6c65                	lui	s8,0x19
 3d4:	2d66                	fld	fs10,88(sp)
 3d6:	6e69                	lui	t3,0x1a
 3d8:	7469                	lui	s0,0xffffa
 3da:	632e                	flw	ft6,200(sp)
 3dc:	5f00                	lw	s0,56(a4)
 3de:	6c5f 6269 5f63      	0x5f6362696c5f
 3e4:	5f757363          	bgeu	a0,s7,9ca <__abi_tag-0xf7ae>
 3e8:	6966                	flw	fs2,88(sp)
 3ea:	696e                	flw	fs2,216(sp)
 3ec:	5f00                	lw	s0,56(a4)
 3ee:	6c5f 6269 5f63      	0x5f6362696c5f
 3f4:	5f757363          	bgeu	a0,s7,9da <__abi_tag-0xf79e>
 3f8:	6e69                	lui	t3,0x1a
 3fa:	7469                	lui	s0,0xffffa
 3fc:	6100                	flw	fs0,0(a0)
 3fe:	6772                	flw	fa4,28(sp)
 400:	0076                	c.slli	zero,0x1d
 402:	7261                	lui	tp,0xffff8
 404:	73006367          	0x73006367
 408:	7a69                	lui	s4,0xffffa
 40a:	0065                	c.nop	25
 40c:	20554e47          	fmsub.s	ft8,fa0,ft5,ft4,rmm
 410:	20313143          	fmadd.s	ft2,ft2,ft3,ft4,rup
 414:	3031                	jal	fffffc20 <__global_pointer$+0xfffed420>
 416:	322e                	fld	ft4,232(sp)
 418:	302e                	fld	ft0,232(sp)
 41a:	2d20                	fld	fs0,88(a0)
 41c:	636d                	lui	t1,0x1b
 41e:	6f6d                	lui	t5,0x1b
 420:	6564                	flw	fs1,76(a0)
 422:	3d6c                	fld	fa1,248(a0)
 424:	656d                	lui	a0,0x1b
 426:	6c64                	flw	fs1,92(s0)
 428:	2d20776f          	jal	a4,76fa <__abi_tag-0x8a7e>
 42c:	746d                	lui	s0,0xffffb
 42e:	6e75                	lui	t3,0x1d
 430:	3d65                	jal	2e8 <__abi_tag-0xfe90>
 432:	6f72                	flw	ft10,28(sp)
 434:	74656b63          	bltu	a0,t1,b8a <__abi_tag-0xf5ee>
 438:	2d20                	fld	fs0,88(a0)
 43a:	616d                	addi	sp,sp,240
 43c:	6372                	flw	ft6,28(sp)
 43e:	3d68                	fld	fa0,248(a0)
 440:	7672                	flw	fa2,60(sp)
 442:	61693233          	0x61693233
 446:	2d20                	fld	fs0,88(a0)
 448:	616d                	addi	sp,sp,240
 44a:	6962                	flw	fs2,24(sp)
 44c:	693d                	lui	s2,0xf
 44e:	706c                	flw	fa1,100(s0)
 450:	2d203233          	0x2d203233
 454:	616d                	addi	sp,sp,240
 456:	6372                	flw	ft6,28(sp)
 458:	3d68                	fld	fa0,248(a0)
 45a:	7672                	flw	fa2,60(sp)
 45c:	61693233          	0x61693233
 460:	2d20                	fld	fs0,88(a0)
 462:	4f2d2067          	0x4f2d2067
 466:	2032                	fld	ft0,264(sp)
 468:	732d                	lui	t1,0xfffeb
 46a:	6474                	flw	fa3,76(s0)
 46c:	673d                	lui	a4,0xf
 46e:	756e                	flw	fa0,248(sp)
 470:	3131                	jal	7c <__abi_tag-0x100fc>
 472:	2d20                	fld	fs0,88(a0)
 474:	6766                	flw	fa4,88(sp)
 476:	756e                	flw	fa0,248(sp)
 478:	3938                	fld	fa4,112(a0)
 47a:	692d                	lui	s2,0xb
 47c:	6c6e                	flw	fs8,216(sp)
 47e:	6e69                	lui	t3,0x1a
 480:	2065                	jal	528 <__abi_tag-0xfc50>
 482:	662d                	lui	a2,0xb
 484:	656d                	lui	a0,0x1b
 486:	6772                	flw	fa4,28(sp)
 488:	2d65                	jal	b40 <__abi_tag-0xf638>
 48a:	6c61                	lui	s8,0x18
 48c:	2d6c                	fld	fa1,216(a0)
 48e:	736e6f63          	bltu	t3,s6,bcc <__abi_tag-0xf5ac>
 492:	6174                	flw	fa3,68(a0)
 494:	746e                	flw	fs0,248(sp)
 496:	662d2073          	csrs	0x662,s10
 49a:	6f72                	flw	ft10,28(sp)
 49c:	6e75                	lui	t3,0x1d
 49e:	6964                	flw	fs1,84(a0)
 4a0:	676e                	flw	fa4,216(sp)
 4a2:	6d2d                	lui	s10,0xb
 4a4:	7461                	lui	s0,0xffff8
 4a6:	2068                	fld	fa0,192(s0)
 4a8:	662d                	lui	a2,0xb
 4aa:	616d                	addi	sp,sp,240
 4ac:	6874                	flw	fa3,84(s0)
 4ae:	652d                	lui	a0,0xb
 4b0:	7272                	flw	ft4,60(sp)
 4b2:	6f6e                	flw	ft10,216(sp)
 4b4:	2d20                	fld	fs0,88(a0)
 4b6:	5066                	0x5066
 4b8:	4349                	li	t1,18
 4ba:	2d20                	fld	fs0,88(a0)
 4bc:	6e66                	flw	ft8,88(sp)
 4be:	74732d6f          	jal	s10,33404 <__global_pointer$+0x20c04>
 4c2:	6361                	lui	t1,0x18
 4c4:	72702d6b          	0x72702d6b
 4c8:	6365746f          	jal	s0,57afe <__global_pointer$+0x452fe>
 4cc:	6f74                	flw	fa3,92(a4)
 4ce:	2072                	fld	ft0,280(sp)
 4d0:	662d                	lui	a2,0xb
 4d2:	6c74                	flw	fa3,92(s0)
 4d4:	6f6d2d73          	csrrs	s10,0x6f6,s10
 4d8:	6564                	flw	fs1,76(a0)
 4da:	3d6c                	fld	fa1,248(a0)
 4dc:	6e69                	lui	t3,0x1a
 4de:	7469                	lui	s0,0xffffa
 4e0:	6169                	addi	sp,sp,208
 4e2:	2d6c                	fld	fa1,216(a0)
 4e4:	7865                	lui	a6,0xffff9
 4e6:	6365                	lui	t1,0x19
 4e8:	5f00                	lw	s0,56(a4)
 4ea:	695f 696e 5f74      	0x5f74696e695f
 4f0:	7261                	lui	tp,0xffff8
 4f2:	6172                	flw	ft2,28(sp)
 4f4:	5f79                	li	t5,-2
 4f6:	6e65                	lui	t3,0x19
 4f8:	0064                	addi	s1,sp,12

Disassembly of section .debug_loc:

00000000 <.debug_loc>:
   0:	0000                	unimp
   2:	0000                	unimp
   4:	004c                	addi	a1,sp,4
   6:	0000                	unimp
   8:	0001                	nop
   a:	4c5a                	lw	s8,148(sp)
   c:	0000                	unimp
   e:	6c00                	flw	fs0,24(s0)
  10:	0000                	unimp
  12:	0100                	addi	s0,sp,128
  14:	6300                	flw	fs0,0(a4)
  16:	006c                	addi	a1,sp,12
  18:	0000                	unimp
  1a:	0090                	addi	a2,sp,64
  1c:	0000                	unimp
  1e:	0004                	0x4
  20:	9f5a01f3          	0x9f5a01f3
	...
  30:	004c                	addi	a1,sp,4
  32:	0000                	unimp
  34:	0001                	nop
  36:	00004c5b          	0x4c5b
  3a:	6c00                	flw	fs0,24(s0)
  3c:	0000                	unimp
  3e:	0100                	addi	s0,sp,128
  40:	6400                	flw	fs0,8(s0)
  42:	006c                	addi	a1,sp,12
  44:	0000                	unimp
  46:	0090                	addi	a2,sp,64
  48:	0000                	unimp
  4a:	0004                	0x4
  4c:	9f5b01f3          	0x9f5b01f3
	...
  5c:	004c                	addi	a1,sp,4
  5e:	0000                	unimp
  60:	0001                	nop
  62:	4c5c                	lw	a5,28(s0)
  64:	0000                	unimp
  66:	6c00                	flw	fs0,24(s0)
  68:	0000                	unimp
  6a:	0100                	addi	s0,sp,128
  6c:	6500                	flw	fs0,8(a0)
  6e:	006c                	addi	a1,sp,12
  70:	0000                	unimp
  72:	0090                	addi	a2,sp,64
  74:	0000                	unimp
  76:	0004                	0x4
  78:	9f5c01f3          	0x9f5c01f3
	...
  84:	0038                	addi	a4,sp,8
  86:	0000                	unimp
  88:	007c                	addi	a5,sp,12
  8a:	0000                	unimp
  8c:	0001                	nop
  8e:	0062                	c.slli	zero,0x18
  90:	0000                	unimp
  92:	0000                	unimp
  94:	0000                	unimp
  96:	3800                	fld	fs0,48(s0)
  98:	0000                	unimp
  9a:	4c00                	lw	s0,24(s0)
  9c:	0000                	unimp
  9e:	0200                	addi	s0,sp,256
  a0:	3000                	fld	fs0,32(s0)
  a2:	4c9f 0000 6000      	0x600000004c9f
  a8:	0000                	unimp
  aa:	0100                	addi	s0,sp,128
  ac:	5900                	lw	s0,48(a0)
  ae:	0060                	addi	s0,sp,12
  b0:	0000                	unimp
  b2:	0064                	addi	s1,sp,12
  b4:	0000                	unimp
  b6:	7f790003          	lb	zero,2039(s2) # b7f7 <__abi_tag-0x4981>
  ba:	649f 0000 6c00      	0x6c000000649f
  c0:	0000                	unimp
  c2:	0100                	addi	s0,sp,128
  c4:	5900                	lw	s0,48(a0)
	...
